%!PS-Adobe-2.0 EPSF-2.0
%%BoundingBox:  0 0 567 546
%%Title: optCut-5E-Run3-caseA-sinTdR-unzoomZ.eps: cutOptDRsinTheta
%%Creator: ROOT Version 5.30/02
%%CreationDate: Tue Feb  4 15:13:39 2014
%%EndComments
%%BeginProlog
80 dict begin
/s {stroke} def /l {lineto} def /m {moveto} def /t {translate} def
/r {rotate} def /rl {roll}  def /R {repeat} def
/d {rlineto} def /rm {rmoveto} def /gr {grestore} def /f {eofill} def
/c {setrgbcolor} def /black {0 setgray} def /sd {setdash} def
/cl {closepath} def /sf {scalefont setfont} def /lw {setlinewidth} def
/box {m dup 0 exch d exch 0 d 0 exch neg d cl} def
/NC{systemdict begin initclip end}def/C{NC box clip newpath}def
/bl {box s} def /bf {box f} def /Y { 0 exch d} def /X { 0 d} def 
/K {{pop pop 0 moveto} exch kshow} bind def
/ita {/ang 15 def gsave [1 0 ang dup sin exch cos div 1 0 0] concat} def 
/mp {newpath /y exch def /x exch def} def
/side {[w .77 mul w .23 mul] .385 w mul sd w 0 l currentpoint t -144 r} def
/mr {mp x y w2 0 360 arc} def /m24 {mr s} def /m20 {mr f} def
/mb {mp x y w2 add m w2 neg 0 d 0 w neg d w 0 d 0 w d cl} def
/mt {mp x y w2 add m w2 neg w neg d w 0 d cl} def
/m21 {mb f} def /m25 {mb s} def /m22 {mt f} def /m26{mt s} def
/m23 {mp x y w2 sub m w2 w d w neg 0 d cl f} def
/m27 {mp x y w2 add m w3 neg w2 neg d w3 w2 neg d w3 w2 d cl s} def
/m28 {mp x w2 sub y w2 sub w3 add m w3 0 d  0 w3 neg d w3 0 d 0 w3 d w3 0 d  0 w3 d w3 neg 0 d 0 w3 d w3 neg 0 d 0 w3 neg d w3 neg 0 d cl s } def
/m29 {mp gsave x w2 sub y w2 add w3 sub m currentpoint t 4 {side} repeat cl fill gr} def
/m30 {mp gsave x w2 sub y w2 add w3 sub m currentpoint t 4 {side} repeat cl s gr} def
/m31 {mp x y w2 sub m 0 w d x w2 sub y m w 0 d x w2 sub y w2 add m w w neg d x w2 sub y w2 sub m w w d s} def
/m32 {mp x y w2 sub m w2 w d w neg 0 d cl s} def
/m33 {mp x y w2 add m w3 neg w2 neg d w3 w2 neg d w3 w2 d cl f} def
/m34 {mp x w2 sub y w2 sub w3 add m w3 0 d  0 w3 neg d w3 0 d 0 w3 d w3 0 d  0 w3 d w3 neg 0 d 0 w3 d w3 neg 0 d 0 w3 neg d w3 neg 0 d cl f } def
/m2 {mp x y w2 sub m 0 w d x w2 sub y m w 0 d s} def
/m5 {mp x w2 sub y w2 sub m w w d x w2 sub y w2 add m w w neg d s} def
/reEncode {exch findfont dup length dict begin {1 index /FID eq  {pop pop} {def} ifelse } forall /Encoding exch def currentdict end dup /FontName get exch definefont pop } def [/Times-Bold /Times-Italic /Times-BoldItalic /Helvetica /Helvetica-Oblique
 /Helvetica-Bold /Helvetica-BoldOblique /Courier /Courier-Oblique /Courier-Bold /Courier-BoldOblique /Times-Roman /AvantGarde-Book /AvantGarde-BookOblique /AvantGarde-Demi /AvantGarde-DemiOblique /Bookman-Demi /Bookman-DemiItalic /Bookman-Light
 /Bookman-LightItalic /Helvetica-Narrow /Helvetica-Narrow-Bold /Helvetica-Narrow-BoldOblique /Helvetica-Narrow-Oblique /NewCenturySchlbk-Roman /NewCenturySchlbk-Bold /NewCenturySchlbk-BoldItalic /NewCenturySchlbk-Italic /Palatino-Bold
 /Palatino-BoldItalic /Palatino-Italic /Palatino-Roman ] {ISOLatin1Encoding reEncode } forall%%EndProlog
%%BeginSetup
%%EndSetup
newpath  gsave  .25 .25 scale  gsave  0 0 t black[  ] 0 sd 3 lw 1 1 1 c 2268 2184 0 0 bf black 1 1 1 c 1780 1704 374 371 bf black 1780 1704 374 371 bl 1 1 1 c 0 0.0753488 0.555581 c 36 34 374 371 bf 0 0.150698 0.601163 c 35 34 410 371 bf 0 0.178953
 0.618256 c 36 34 445 371 bf 36 34 481 371 bf 0 0.188372 0.623953 c 35 34 517 371 bf 36 34 552 371 bf 35 34 588 371 bf 36 34 623 371 bf 36 34 659 371 bf 0 0.197791 0.629651 c 35 34 695 371 bf 36 34 730 371 bf 35 34 766 371 bf 36 34 801 371 bf 36 34
 837 371 bf 35 34 873 371 bf 36 34 908 371 bf 35 34 944 371 bf 36 34 979 371 bf 36 34 1015 371 bf 35 34 1051 371 bf 36 34 1086 371 bf 35 34 1122 371 bf 36 34 1157 371 bf 36 34 1193 371 bf 35 34 1229 371 bf 36 34 1264 371 bf 35 34 1300 371 bf 36 34
 1335 371 bf 36 34 1371 371 bf 35 34 1407 371 bf 36 34 1442 371 bf 35 34 1478 371 bf 36 34 1513 371 bf 36 34 1549 371 bf 35 34 1585 371 bf 36 34 1620 371 bf 35 34 1656 371 bf 36 34 1691 371 bf 36 34 1727 371 bf 35 34 1763 371 bf 36 34 1798 371 bf 36
 34 1834 371 bf 35 34 1870 371 bf 36 34 1905 371 bf 35 34 1941 371 bf 36 34 1976 371 bf 36 34 2012 371 bf 35 34 2048 371 bf 36 34 2083 371 bf 0 0.178953 0.618256 c 36 34 374 405 bf 0 0.423837 0.766395 c 35 34 410 405 bf 0 0.527442 0.82907 c 36 34 445
 405 bf 0 0.555698 0.846163 c 36 34 481 405 bf 0 0.574535 0.857558 c 35 34 517 405 bf 0 0.583953 0.863256 c 36 34 552 405 bf 0 0.593372 0.868953 c 35 34 588 405 bf 36 34 623 405 bf 36 34 659 405 bf 35 34 695 405 bf 0 0.602791 0.874651 c 36 34 730 405
 bf 35 34 766 405 bf 36 34 801 405 bf 36 34 837 405 bf 35 34 873 405 bf 36 34 908 405 bf 35 34 944 405 bf 36 34 979 405 bf 36 34 1015 405 bf 35 34 1051 405 bf 36 34 1086 405 bf 35 34 1122 405 bf 36 34 1157 405 bf 36 34 1193 405 bf 35 34 1229 405 bf
 36 34 1264 405 bf 35 34 1300 405 bf 36 34 1335 405 bf 36 34 1371 405 bf 35 34 1407 405 bf 36 34 1442 405 bf 35 34 1478 405 bf 36 34 1513 405 bf 36 34 1549 405 bf 35 34 1585 405 bf 36 34 1620 405 bf 35 34 1656 405 bf 36 34 1691 405 bf 36 34 1727 405
 bf 35 34 1763 405 bf 36 34 1798 405 bf 36 34 1834 405 bf 35 34 1870 405 bf 36 34 1905 405 bf 35 34 1941 405 bf 36 34 1976 405 bf 36 34 2012 405 bf 35 34 2048 405 bf 36 34 2083 405 bf 0 0.216628 0.641047 c 36 34 374 439 bf 0 0.574535 0.857558 c 35 34
 410 439 bf 0 0.791163 0.988605 c 36 34 445 439 bf 0.0882609 0.829275 0.910725 c 36 34 481 439 bf 0.151304 0.843044 0.846957 c 35 34 517 439 bf 0.176522 0.848551 0.821449 c 36 34 552 439 bf 0.18913 0.851304 0.808696 c 35 34 588 439 bf 0.201739
 0.854058 0.795942 c 36 34 623 439 bf 36 34 659 439 bf 35 34 695 439 bf 0.214348 0.856812 0.783188 c 36 34 730 439 bf 35 34 766 439 bf 36 34 801 439 bf 36 34 837 439 bf 35 34 873 439 bf 36 34 908 439 bf 35 34 944 439 bf 36 34 979 439 bf 36 34 1015
 439 bf 35 34 1051 439 bf 36 34 1086 439 bf 35 34 1122 439 bf 36 34 1157 439 bf 36 34 1193 439 bf 35 34 1229 439 bf 0.226957 0.859565 0.770435 c 36 34 1264 439 bf 35 34 1300 439 bf 36 34 1335 439 bf 36 34 1371 439 bf 35 34 1407 439 bf 36 34 1442 439
 bf 35 34 1478 439 bf 36 34 1513 439 bf 36 34 1549 439 bf 35 34 1585 439 bf 36 34 1620 439 bf 35 34 1656 439 bf 36 34 1691 439 bf 36 34 1727 439 bf 35 34 1763 439 bf 36 34 1798 439 bf 36 34 1834 439 bf 35 34 1870 439 bf 36 34 1905 439 bf 35 34 1941
 439 bf 36 34 1976 439 bf 36 34 2012 439 bf 35 34 2048 439 bf 36 34 2083 439 bf 0 0.226047 0.646744 c 36 35 374 473 bf 0 0.649884 0.90314 c 35 35 410 473 bf 0.176522 0.848551 0.821449 c 36 35 445 473 bf 0.378261 0.892609 0.617391 c 36 35 481 473 bf
 0.47913 0.914638 0.515362 c 35 35 517 473 bf 0.516957 0.922899 0.477101 c 36 35 552 473 bf 0.542174 0.928406 0.451594 c 35 35 588 473 bf 0.567391 0.933913 0.426087 c 36 35 623 473 bf 36 35 659 473 bf 0.58 0.936667 0.413333 c 35 35 695 473 bf 36 35
 730 473 bf 0.592609 0.93942 0.40058 c 35 35 766 473 bf 36 35 801 473 bf 36 35 837 473 bf 35 35 873 473 bf 36 35 908 473 bf 35 35 944 473 bf 36 35 979 473 bf 0.605217 0.942174 0.387826 c 36 35 1015 473 bf 35 35 1051 473 bf 36 35 1086 473 bf 35 35
 1122 473 bf 36 35 1157 473 bf 36 35 1193 473 bf 35 35 1229 473 bf 36 35 1264 473 bf 35 35 1300 473 bf 36 35 1335 473 bf 36 35 1371 473 bf 35 35 1407 473 bf 36 35 1442 473 bf 35 35 1478 473 bf 36 35 1513 473 bf 36 35 1549 473 bf 35 35 1585 473 bf 36
 35 1620 473 bf 35 35 1656 473 bf 36 35 1691 473 bf 36 35 1727 473 bf 35 35 1763 473 bf 36 35 1798 473 bf 36 35 1834 473 bf 35 35 1870 473 bf 36 35 1905 473 bf 35 35 1941 473 bf 36 35 1976 473 bf 36 35 2012 473 bf 35 35 2048 473 bf 36 35 2083 473 bf
 0 0.235465 0.652442 c 36 34 374 508 bf 0 0.67814 0.920233 c 35 34 410 508 bf 0.277391 0.87058 0.71942 c 36 34 445 508 bf 0.542174 0.928406 0.451594 c 36 34 481 508 bf 0.693478 0.961449 0.298551 c 35 34 517 508 bf 0.76913 0.977971 0.222029 c 36 34
 552 508 bf 0.806957 0.986232 0.183768 c 35 34 588 508 bf 0.832174 0.991739 0.158261 c 36 34 623 508 bf 0.844783 0.994493 0.145507 c 36 34 659 508 bf 0.857391 0.997246 0.132754 c 35 34 695 508 bf 0.87 1 0.12 c 36 34 730 508 bf 35 34 766 508 bf 36 34
 801 508 bf 0.872203 0.986441 0.117966 c 36 34 837 508 bf 35 34 873 508 bf 36 34 908 508 bf 35 34 944 508 bf 36 34 979 508 bf 36 34 1015 508 bf 35 34 1051 508 bf 36 34 1086 508 bf 35 34 1122 508 bf 36 34 1157 508 bf 36 34 1193 508 bf 0.874407
 0.972881 0.115932 c 35 34 1229 508 bf 36 34 1264 508 bf 35 34 1300 508 bf 36 34 1335 508 bf 36 34 1371 508 bf 35 34 1407 508 bf 36 34 1442 508 bf 35 34 1478 508 bf 36 34 1513 508 bf 36 34 1549 508 bf 35 34 1585 508 bf 36 34 1620 508 bf 35 34 1656
 508 bf 36 34 1691 508 bf 36 34 1727 508 bf 35 34 1763 508 bf 36 34 1798 508 bf 36 34 1834 508 bf 35 34 1870 508 bf 36 34 1905 508 bf 35 34 1941 508 bf 36 34 1976 508 bf 36 34 2012 508 bf 35 34 2048 508 bf 36 34 2083 508 bf 0 0.244884 0.65814 c 36 34
 374 542 bf 0 0.696977 0.931628 c 35 34 410 542 bf 0.327826 0.881594 0.668406 c 36 34 445 542 bf 0.643043 0.950435 0.349565 c 36 34 481 542 bf 0.832174 0.991739 0.158261 c 35 34 517 542 bf 0.881017 0.932203 0.109831 c 36 34 552 542 bf 0.892034
 0.864407 0.099661 c 35 34 588 542 bf 0.896441 0.837288 0.0955932 c 36 34 623 542 bf 0.900847 0.81017 0.0915254 c 36 34 659 542 bf 0.903051 0.79661 0.0894915 c 35 34 695 542 bf 0.905254 0.783051 0.0874576 c 36 34 730 542 bf 0.907458 0.769492
 0.0854237 c 35 34 766 542 bf 36 34 801 542 bf 36 34 837 542 bf 0.909661 0.755932 0.0833898 c 35 34 873 542 bf 36 34 908 542 bf 35 34 944 542 bf 36 34 979 542 bf 36 34 1015 542 bf 0.911864 0.742373 0.0813559 c 35 34 1051 542 bf 36 34 1086 542 bf 35
 34 1122 542 bf 36 34 1157 542 bf 36 34 1193 542 bf 35 34 1229 542 bf 36 34 1264 542 bf 35 34 1300 542 bf 36 34 1335 542 bf 36 34 1371 542 bf 35 34 1407 542 bf 36 34 1442 542 bf 35 34 1478 542 bf 36 34 1513 542 bf 36 34 1549 542 bf 35 34 1585 542 bf
 36 34 1620 542 bf 35 34 1656 542 bf 36 34 1691 542 bf 36 34 1727 542 bf 35 34 1763 542 bf 36 34 1798 542 bf 36 34 1834 542 bf 35 34 1870 542 bf 36 34 1905 542 bf 35 34 1941 542 bf 36 34 1976 542 bf 36 34 2012 542 bf 35 34 2048 542 bf 36 34 2083 542
 bf 0 0.244884 0.65814 c 36 34 374 576 bf 0 0.706395 0.937326 c 35 34 410 576 bf 0.353043 0.887101 0.642899 c 36 34 445 576 bf 0.693478 0.961449 0.298551 c 36 34 481 576 bf 0.87661 0.959322 0.113898 c 35 34 517 576 bf 0.900847 0.81017 0.0915254 c 36
 34 552 576 bf 0.914068 0.728814 0.079322 c 35 34 588 576 bf 0.922881 0.674576 0.0711864 c 36 34 623 576 bf 0.927288 0.647458 0.0671186 c 36 34 659 576 bf 0.931695 0.620339 0.0630508 c 35 34 695 576 bf 0.933898 0.60678 0.061017 c 36 34 730 576 bf
 0.936102 0.59322 0.0589831 c 35 34 766 576 bf 36 34 801 576 bf 0.938305 0.579661 0.0569492 c 36 34 837 576 bf 35 34 873 576 bf 36 34 908 576 bf 0.940508 0.566102 0.0549153 c 35 34 944 576 bf 36 34 979 576 bf 36 34 1015 576 bf 35 34 1051 576 bf 36 34
 1086 576 bf 35 34 1122 576 bf 36 34 1157 576 bf 36 34 1193 576 bf 0.942712 0.552542 0.0528814 c 35 34 1229 576 bf 36 34 1264 576 bf 35 34 1300 576 bf 36 34 1335 576 bf 36 34 1371 576 bf 35 34 1407 576 bf 36 34 1442 576 bf 35 34 1478 576 bf 36 34
 1513 576 bf 36 34 1549 576 bf 35 34 1585 576 bf 36 34 1620 576 bf 35 34 1656 576 bf 36 34 1691 576 bf 36 34 1727 576 bf 35 34 1763 576 bf 36 34 1798 576 bf 36 34 1834 576 bf 35 34 1870 576 bf 36 34 1905 576 bf 35 34 1941 576 bf 36 34 1976 576 bf 36
 34 2012 576 bf 35 34 2048 576 bf 36 34 2083 576 bf 0 0.244884 0.65814 c 36 34 374 610 bf 0 0.715814 0.943023 c 35 34 410 610 bf 0.378261 0.892609 0.617391 c 36 34 445 610 bf 0.718696 0.966956 0.273043 c 36 34 481 610 bf 0.885424 0.905085 0.105763 c
 35 34 517 610 bf 0.911864 0.742373 0.0813559 c 36 34 552 610 bf 0.929492 0.633898 0.0650847 c 35 34 588 610 bf 0.940508 0.566102 0.0549153 c 36 34 623 610 bf 0.947119 0.525424 0.0488136 c 36 34 659 610 bf 0.951525 0.498305 0.0447458 c 35 34 695 610
 bf 0.955932 0.471186 0.040678 c 36 34 730 610 bf 0.958136 0.457627 0.0386441 c 35 34 766 610 bf 36 34 801 610 bf 0.960339 0.444068 0.0366102 c 36 34 837 610 bf 35 34 873 610 bf 0.962542 0.430508 0.0345763 c 36 34 908 610 bf 35 34 944 610 bf 36 34
 979 610 bf 36 34 1015 610 bf 0.964746 0.416949 0.0325424 c 35 34 1051 610 bf 36 34 1086 610 bf 35 34 1122 610 bf 36 34 1157 610 bf 36 34 1193 610 bf 35 34 1229 610 bf 36 34 1264 610 bf 35 34 1300 610 bf 36 34 1335 610 bf 36 34 1371 610 bf 35 34 1407
 610 bf 36 34 1442 610 bf 35 34 1478 610 bf 36 34 1513 610 bf 36 34 1549 610 bf 35 34 1585 610 bf 36 34 1620 610 bf 35 34 1656 610 bf 0.966949 0.40339 0.0305085 c 36 34 1691 610 bf 36 34 1727 610 bf 35 34 1763 610 bf 36 34 1798 610 bf 36 34 1834 610
 bf 35 34 1870 610 bf 36 34 1905 610 bf 35 34 1941 610 bf 36 34 1976 610 bf 36 34 2012 610 bf 35 34 2048 610 bf 36 34 2083 610 bf 0 0.244884 0.65814 c 36 34 374 644 bf 0 0.715814 0.943023 c 35 34 410 644 bf 0.39087 0.895362 0.604638 c 36 34 445 644
 bf 0.743913 0.972464 0.247536 c 36 34 481 644 bf 0.889831 0.877966 0.101695 c 35 34 517 644 bf 0.920678 0.688136 0.0732203 c 36 34 552 644 bf 0.940508 0.566102 0.0549153 c 35 34 588 644 bf 0.953729 0.484746 0.0427119 c 36 34 623 644 bf 0.962542
 0.430508 0.0345763 c 36 34 659 644 bf 0.966949 0.40339 0.0305085 c 35 34 695 644 bf 0.971356 0.376271 0.0264407 c 36 34 730 644 bf 0.973559 0.362712 0.0244068 c 35 34 766 644 bf 0.975763 0.349153 0.0223729 c 36 34 801 644 bf 0.977966 0.335593
 0.020339 c 36 34 837 644 bf 35 34 873 644 bf 0.980169 0.322034 0.0183051 c 36 34 908 644 bf 35 34 944 644 bf 36 34 979 644 bf 0.982373 0.308475 0.0162712 c 36 34 1015 644 bf 35 34 1051 644 bf 36 34 1086 644 bf 35 34 1122 644 bf 36 34 1157 644 bf 36
 34 1193 644 bf 0.984576 0.294915 0.0142373 c 35 34 1229 644 bf 36 34 1264 644 bf 35 34 1300 644 bf 36 34 1335 644 bf 36 34 1371 644 bf 35 34 1407 644 bf 36 34 1442 644 bf 35 34 1478 644 bf 36 34 1513 644 bf 36 34 1549 644 bf 35 34 1585 644 bf 36 34
 1620 644 bf 35 34 1656 644 bf 36 34 1691 644 bf 36 34 1727 644 bf 35 34 1763 644 bf 36 34 1798 644 bf 36 34 1834 644 bf 35 34 1870 644 bf 36 34 1905 644 bf 35 34 1941 644 bf 36 34 1976 644 bf 36 34 2012 644 bf 35 34 2048 644 bf 36 34 2083 644 bf 0
 0.244884 0.65814 c 36 34 374 678 bf 0 0.725233 0.948721 c 35 34 410 678 bf 0.403478 0.898116 0.591884 c 36 34 445 678 bf 0.756522 0.975217 0.234783 c 36 34 481 678 bf 0.894237 0.850847 0.0976271 c 35 34 517 678 bf 0.925085 0.661017 0.0691525 c 36 34
 552 678 bf 0.947119 0.525424 0.0488136 c 35 34 588 678 bf 0.962542 0.430508 0.0345763 c 36 34 623 678 bf 0.973559 0.362712 0.0244068 c 36 34 659 678 bf 0.980169 0.322034 0.0183051 c 35 34 695 678 bf 0.984576 0.294915 0.0142373 c 36 34 730 678 bf
 0.988983 0.267797 0.0101695 c 35 34 766 678 bf 0.991186 0.254237 0.00813559 c 36 34 801 678 bf 36 34 837 678 bf 0.99339 0.240678 0.00610169 c 35 34 873 678 bf 0.995593 0.227119 0.0040678 c 36 34 908 678 bf 35 34 944 678 bf 36 34 979 678 bf 0.997797
 0.213559 0.0020339 c 36 34 1015 678 bf 35 34 1051 678 bf 36 34 1086 678 bf 35 34 1122 678 bf 36 34 1157 678 bf 36 34 1193 678 bf 35 34 1229 678 bf 1 0.2 0 c 36 34 1264 678 bf 35 34 1300 678 bf 36 34 1335 678 bf 36 34 1371 678 bf 35 34 1407 678 bf 36
 34 1442 678 bf 35 34 1478 678 bf 36 34 1513 678 bf 36 34 1549 678 bf 35 34 1585 678 bf 36 34 1620 678 bf 35 34 1656 678 bf 36 34 1691 678 bf 36 34 1727 678 bf 35 34 1763 678 bf 36 34 1798 678 bf 36 34 1834 678 bf 35 34 1870 678 bf 36 34 1905 678 bf
 35 34 1941 678 bf 36 34 1976 678 bf 36 34 2012 678 bf 35 34 2048 678 bf 36 34 2083 678 bf 0 0.244884 0.65814 c 36 34 374 712 bf 0 0.725233 0.948721 c 35 34 410 712 bf 0.403478 0.898116 0.591884 c 36 34 445 712 bf 0.76913 0.977971 0.222029 c 36 34
 481 712 bf 0.896441 0.837288 0.0955932 c 35 34 517 712 bf 0.929492 0.633898 0.0650847 c 36 34 552 712 bf 0.951525 0.498305 0.0447458 c 35 34 588 712 bf 0.969153 0.38983 0.0284746 c 36 34 623 712 bf 0.980169 0.322034 0.0183051 c 36 34 659 712 bf
 0.988983 0.267797 0.0101695 c 35 34 695 712 bf 0.995593 0.227119 0.0040678 c 36 34 730 712 bf 0.997797 0.213559 0.0020339 c 35 34 766 712 bf 0.988049 0.195122 0 c 36 34 801 712 bf 0.976098 0.190244 0 c 36 34 837 712 bf 35 34 873 712 bf 0.964146
 0.185366 0 c 36 34 908 712 bf 35 34 944 712 bf 0.952195 0.180488 0 c 36 34 979 712 bf 36 34 1015 712 bf 35 34 1051 712 bf 0.940244 0.17561 0 c 36 34 1086 712 bf 35 34 1122 712 bf 36 34 1157 712 bf 36 34 1193 712 bf 35 34 1229 712 bf 36 34 1264 712
 bf 35 34 1300 712 bf 0.928293 0.170732 0 c 36 34 1335 712 bf 36 34 1371 712 bf 35 34 1407 712 bf 36 34 1442 712 bf 35 34 1478 712 bf 36 34 1513 712 bf 36 34 1549 712 bf 35 34 1585 712 bf 36 34 1620 712 bf 35 34 1656 712 bf 36 34 1691 712 bf 36 34
 1727 712 bf 35 34 1763 712 bf 36 34 1798 712 bf 36 34 1834 712 bf 35 34 1870 712 bf 36 34 1905 712 bf 35 34 1941 712 bf 36 34 1976 712 bf 36 34 2012 712 bf 35 34 2048 712 bf 36 34 2083 712 bf 0 0.254302 0.663837 c 36 34 374 746 bf 0 0.725233
 0.948721 c 35 34 410 746 bf 0.403478 0.898116 0.591884 c 36 34 445 746 bf 0.76913 0.977971 0.222029 c 36 34 481 746 bf 0.898644 0.823729 0.0935593 c 35 34 517 746 bf 0.931695 0.620339 0.0630508 c 36 34 552 746 bf 0.955932 0.471186 0.040678 c 35 34
 588 746 bf 0.973559 0.362712 0.0244068 c 36 34 623 746 bf 0.98678 0.281356 0.0122034 c 36 34 659 746 bf 0.995593 0.227119 0.0040678 c 35 34 695 746 bf 0.988049 0.195122 0 c 36 34 730 746 bf 0.964146 0.185366 0 c 35 34 766 746 bf 0.940244 0.17561 0 c
 36 34 801 746 bf 0.928293 0.170732 0 c 36 34 837 746 bf 0.916341 0.165854 0 c 35 34 873 746 bf 0.90439 0.160976 0 c 36 34 908 746 bf 35 34 944 746 bf 0.892439 0.156098 0 c 36 34 979 746 bf 36 34 1015 746 bf 35 34 1051 746 bf 36 34 1086 746 bf
 0.880488 0.15122 0 c 35 34 1122 746 bf 36 34 1157 746 bf 36 34 1193 746 bf 35 34 1229 746 bf 36 34 1264 746 bf 35 34 1300 746 bf 36 34 1335 746 bf 36 34 1371 746 bf 0.868537 0.146341 0 c 35 34 1407 746 bf 36 34 1442 746 bf 35 34 1478 746 bf 36 34
 1513 746 bf 36 34 1549 746 bf 35 34 1585 746 bf 36 34 1620 746 bf 35 34 1656 746 bf 36 34 1691 746 bf 36 34 1727 746 bf 35 34 1763 746 bf 36 34 1798 746 bf 36 34 1834 746 bf 35 34 1870 746 bf 36 34 1905 746 bf 35 34 1941 746 bf 36 34 1976 746 bf 36
 34 2012 746 bf 35 34 2048 746 bf 36 34 2083 746 bf 0 0.254302 0.663837 c 36 34 374 780 bf 0 0.725233 0.948721 c 35 34 410 780 bf 0.403478 0.898116 0.591884 c 36 34 445 780 bf 0.781739 0.980725 0.209275 c 36 34 481 780 bf 0.900847 0.81017 0.0915254 c
 35 34 517 780 bf 0.933898 0.60678 0.061017 c 36 34 552 780 bf 0.958136 0.457627 0.0386441 c 35 34 588 780 bf 0.975763 0.349153 0.0223729 c 36 34 623 780 bf 0.988983 0.267797 0.0101695 c 36 34 659 780 bf 1 0.2 0 c 35 34 695 780 bf 0.952195 0.180488 0
 c 36 34 730 780 bf 0.928293 0.170732 0 c 35 34 766 780 bf 0.90439 0.160976 0 c 36 34 801 780 bf 0.892439 0.156098 0 c 36 34 837 780 bf 0.868537 0.146341 0 c 35 34 873 780 bf 36 34 908 780 bf 0.856585 0.141463 0 c 35 34 944 780 bf 36 34 979 780 bf
 0.844634 0.136585 0 c 36 34 1015 780 bf 35 34 1051 780 bf 36 34 1086 780 bf 0.832683 0.131707 0 c 35 34 1122 780 bf 36 34 1157 780 bf 36 34 1193 780 bf 35 34 1229 780 bf 36 34 1264 780 bf 35 34 1300 780 bf 0.820732 0.126829 0 c 36 34 1335 780 bf 36
 34 1371 780 bf 35 34 1407 780 bf 36 34 1442 780 bf 35 34 1478 780 bf 36 34 1513 780 bf 36 34 1549 780 bf 35 34 1585 780 bf 36 34 1620 780 bf 35 34 1656 780 bf 36 34 1691 780 bf 36 34 1727 780 bf 35 34 1763 780 bf 36 34 1798 780 bf 36 34 1834 780 bf
 35 34 1870 780 bf 36 34 1905 780 bf 35 34 1941 780 bf 36 34 1976 780 bf 36 34 2012 780 bf 35 34 2048 780 bf 36 34 2083 780 bf 0 0.254302 0.663837 c 36 34 374 814 bf 0 0.725233 0.948721 c 35 34 410 814 bf 0.416087 0.90087 0.57913 c 36 34 445 814 bf
 0.781739 0.980725 0.209275 c 36 34 481 814 bf 0.900847 0.81017 0.0915254 c 35 34 517 814 bf 0.933898 0.60678 0.061017 c 36 34 552 814 bf 0.960339 0.444068 0.0366102 c 35 34 588 814 bf 0.977966 0.335593 0.020339 c 36 34 623 814 bf 0.99339 0.240678
 0.00610169 c 36 34 659 814 bf 0.976098 0.190244 0 c 35 34 695 814 bf 0.940244 0.17561 0 c 36 34 730 814 bf 0.90439 0.160976 0 c 35 34 766 814 bf 0.868537 0.146341 0 c 36 34 801 814 bf 0.856585 0.141463 0 c 36 34 837 814 bf 0.844634 0.136585 0 c 35
 34 873 814 bf 0.832683 0.131707 0 c 36 34 908 814 bf 0.820732 0.126829 0 c 35 34 944 814 bf 0.80878 0.121951 0 c 36 34 979 814 bf 36 34 1015 814 bf 0.796829 0.117073 0 c 35 34 1051 814 bf 36 34 1086 814 bf 35 34 1122 814 bf 36 34 1157 814 bf
 0.784878 0.112195 0 c 36 34 1193 814 bf 35 34 1229 814 bf 36 34 1264 814 bf 35 34 1300 814 bf 36 34 1335 814 bf 36 34 1371 814 bf 35 34 1407 814 bf 36 34 1442 814 bf 35 34 1478 814 bf 36 34 1513 814 bf 36 34 1549 814 bf 35 34 1585 814 bf 36 34 1620
 814 bf 0.772927 0.107317 0 c 35 34 1656 814 bf 36 34 1691 814 bf 36 34 1727 814 bf 35 34 1763 814 bf 36 34 1798 814 bf 36 34 1834 814 bf 35 34 1870 814 bf 36 34 1905 814 bf 35 34 1941 814 bf 36 34 1976 814 bf 36 34 2012 814 bf 35 34 2048 814 bf 36
 34 2083 814 bf 0 0.254302 0.663837 c 36 34 374 848 bf 0 0.725233 0.948721 c 35 34 410 848 bf 0.416087 0.90087 0.57913 c 36 34 445 848 bf 0.781739 0.980725 0.209275 c 36 34 481 848 bf 0.900847 0.81017 0.0915254 c 35 34 517 848 bf 0.936102 0.59322
 0.0589831 c 36 34 552 848 bf 0.960339 0.444068 0.0366102 c 35 34 588 848 bf 0.980169 0.322034 0.0183051 c 36 34 623 848 bf 0.995593 0.227119 0.0040678 c 36 34 659 848 bf 0.964146 0.185366 0 c 35 34 695 848 bf 0.916341 0.165854 0 c 36 34 730 848 bf
 0.880488 0.15122 0 c 35 34 766 848 bf 0.844634 0.136585 0 c 36 34 801 848 bf 0.832683 0.131707 0 c 36 34 837 848 bf 0.80878 0.121951 0 c 35 34 873 848 bf 0.796829 0.117073 0 c 36 34 908 848 bf 0.784878 0.112195 0 c 35 34 944 848 bf 36 34 979 848 bf
 0.772927 0.107317 0 c 36 34 1015 848 bf 35 34 1051 848 bf 0.760976 0.102439 0 c 36 34 1086 848 bf 35 34 1122 848 bf 36 34 1157 848 bf 36 34 1193 848 bf 0.749024 0.097561 0 c 35 34 1229 848 bf 36 34 1264 848 bf 35 34 1300 848 bf 36 34 1335 848 bf 36
 34 1371 848 bf 35 34 1407 848 bf 36 34 1442 848 bf 35 34 1478 848 bf 36 34 1513 848 bf 36 34 1549 848 bf 35 34 1585 848 bf 36 34 1620 848 bf 0.737073 0.0926829 0 c 35 34 1656 848 bf 36 34 1691 848 bf 36 34 1727 848 bf 35 34 1763 848 bf 36 34 1798
 848 bf 36 34 1834 848 bf 35 34 1870 848 bf 36 34 1905 848 bf 35 34 1941 848 bf 36 34 1976 848 bf 36 34 2012 848 bf 35 34 2048 848 bf 36 34 2083 848 bf 0 0.254302 0.663837 c 36 34 374 882 bf 0 0.725233 0.948721 c 35 34 410 882 bf 0.416087 0.90087
 0.57913 c 36 34 445 882 bf 0.781739 0.980725 0.209275 c 36 34 481 882 bf 0.903051 0.79661 0.0894915 c 35 34 517 882 bf 0.936102 0.59322 0.0589831 c 36 34 552 882 bf 0.962542 0.430508 0.0345763 c 35 34 588 882 bf 0.982373 0.308475 0.0162712 c 36 34
 623 882 bf 0.995593 0.227119 0.0040678 c 36 34 659 882 bf 0.952195 0.180488 0 c 35 34 695 882 bf 0.90439 0.160976 0 c 36 34 730 882 bf 0.868537 0.146341 0 c 35 34 766 882 bf 0.832683 0.131707 0 c 36 34 801 882 bf 0.80878 0.121951 0 c 36 34 837 882
 bf 0.784878 0.112195 0 c 35 34 873 882 bf 0.772927 0.107317 0 c 36 34 908 882 bf 0.760976 0.102439 0 c 35 34 944 882 bf 0.749024 0.097561 0 c 36 34 979 882 bf 36 34 1015 882 bf 0.737073 0.0926829 0 c 35 34 1051 882 bf 36 34 1086 882 bf 35 34 1122
 882 bf 0.725122 0.0878049 0 c 36 34 1157 882 bf 36 34 1193 882 bf 35 34 1229 882 bf 36 34 1264 882 bf 35 34 1300 882 bf 0.713171 0.0829268 0 c 36 34 1335 882 bf 36 34 1371 882 bf 35 34 1407 882 bf 36 34 1442 882 bf 35 34 1478 882 bf 36 34 1513 882
 bf 36 34 1549 882 bf 35 34 1585 882 bf 36 34 1620 882 bf 35 34 1656 882 bf 36 34 1691 882 bf 36 34 1727 882 bf 35 34 1763 882 bf 36 34 1798 882 bf 36 34 1834 882 bf 35 34 1870 882 bf 36 34 1905 882 bf 35 34 1941 882 bf 36 34 1976 882 bf 36 34 2012
 882 bf 35 34 2048 882 bf 36 34 2083 882 bf 0 0.254302 0.663837 c 36 34 374 916 bf 0 0.725233 0.948721 c 35 34 410 916 bf 0.416087 0.90087 0.57913 c 36 34 445 916 bf 0.794348 0.983478 0.196522 c 36 34 481 916 bf 0.903051 0.79661 0.0894915 c 35 34 517
 916 bf 0.936102 0.59322 0.0589831 c 36 34 552 916 bf 0.962542 0.430508 0.0345763 c 35 34 588 916 bf 0.982373 0.308475 0.0162712 c 36 34 623 916 bf 0.997797 0.213559 0.0020339 c 36 34 659 916 bf 0.952195 0.180488 0 c 35 34 695 916 bf 0.892439
 0.156098 0 c 36 34 730 916 bf 0.856585 0.141463 0 c 35 34 766 916 bf 0.820732 0.126829 0 c 36 34 801 916 bf 0.796829 0.117073 0 c 36 34 837 916 bf 0.772927 0.107317 0 c 35 34 873 916 bf 0.749024 0.097561 0 c 36 34 908 916 bf 0.737073 0.0926829 0 c
 35 34 944 916 bf 36 34 979 916 bf 0.725122 0.0878049 0 c 36 34 1015 916 bf 0.713171 0.0829268 0 c 35 34 1051 916 bf 36 34 1086 916 bf 35 34 1122 916 bf 0.701219 0.0780488 0 c 36 34 1157 916 bf 36 34 1193 916 bf 35 34 1229 916 bf 36 34 1264 916 bf
 0.689268 0.0731707 0 c 35 34 1300 916 bf 36 34 1335 916 bf 36 34 1371 916 bf 35 34 1407 916 bf 36 34 1442 916 bf 35 34 1478 916 bf 36 34 1513 916 bf 36 34 1549 916 bf 35 34 1585 916 bf 36 34 1620 916 bf 35 34 1656 916 bf 36 34 1691 916 bf 36 34 1727
 916 bf 35 34 1763 916 bf 36 34 1798 916 bf 36 34 1834 916 bf 35 34 1870 916 bf 36 34 1905 916 bf 35 34 1941 916 bf 36 34 1976 916 bf 36 34 2012 916 bf 35 34 2048 916 bf 36 34 2083 916 bf 0 0.254302 0.663837 c 36 35 374 950 bf 0 0.725233 0.948721 c
 35 35 410 950 bf 0.416087 0.90087 0.57913 c 36 35 445 950 bf 0.794348 0.983478 0.196522 c 36 35 481 950 bf 0.903051 0.79661 0.0894915 c 35 35 517 950 bf 0.938305 0.579661 0.0569492 c 36 35 552 950 bf 0.962542 0.430508 0.0345763 c 35 35 588 950 bf
 0.982373 0.308475 0.0162712 c 36 35 623 950 bf 0.997797 0.213559 0.0020339 c 36 35 659 950 bf 0.940244 0.17561 0 c 35 35 695 950 bf 0.892439 0.156098 0 c 36 35 730 950 bf 0.844634 0.136585 0 c 35 35 766 950 bf 0.80878 0.121951 0 c 36 35 801 950 bf
 0.784878 0.112195 0 c 36 35 837 950 bf 0.760976 0.102439 0 c 35 35 873 950 bf 0.737073 0.0926829 0 c 36 35 908 950 bf 0.725122 0.0878049 0 c 35 35 944 950 bf 0.713171 0.0829268 0 c 36 35 979 950 bf 0.701219 0.0780488 0 c 36 35 1015 950 bf 35 35 1051
 950 bf 0.689268 0.0731707 0 c 36 35 1086 950 bf 35 35 1122 950 bf 0.677317 0.0682927 0 c 36 35 1157 950 bf 36 35 1193 950 bf 35 35 1229 950 bf 36 35 1264 950 bf 35 35 1300 950 bf 0.665366 0.0634146 0 c 36 35 1335 950 bf 36 35 1371 950 bf 35 35 1407
 950 bf 36 35 1442 950 bf 35 35 1478 950 bf 36 35 1513 950 bf 36 35 1549 950 bf 35 35 1585 950 bf 36 35 1620 950 bf 35 35 1656 950 bf 36 35 1691 950 bf 36 35 1727 950 bf 35 35 1763 950 bf 36 35 1798 950 bf 36 35 1834 950 bf 35 35 1870 950 bf 36 35
 1905 950 bf 35 35 1941 950 bf 36 35 1976 950 bf 36 35 2012 950 bf 35 35 2048 950 bf 36 35 2083 950 bf 0 0.254302 0.663837 c 36 34 374 985 bf 0 0.725233 0.948721 c 35 34 410 985 bf 0.416087 0.90087 0.57913 c 36 34 445 985 bf 0.794348 0.983478
 0.196522 c 36 34 481 985 bf 0.903051 0.79661 0.0894915 c 35 34 517 985 bf 0.938305 0.579661 0.0569492 c 36 34 552 985 bf 0.964746 0.416949 0.0325424 c 35 34 588 985 bf 0.984576 0.294915 0.0142373 c 36 34 623 985 bf 1 0.2 0 c 36 34 659 985 bf
 0.940244 0.17561 0 c 35 34 695 985 bf 0.880488 0.15122 0 c 36 34 730 985 bf 0.832683 0.131707 0 c 35 34 766 985 bf 0.796829 0.117073 0 c 36 34 801 985 bf 0.772927 0.107317 0 c 36 34 837 985 bf 0.749024 0.097561 0 c 35 34 873 985 bf 0.725122
 0.0878049 0 c 36 34 908 985 bf 0.713171 0.0829268 0 c 35 34 944 985 bf 0.701219 0.0780488 0 c 36 34 979 985 bf 0.689268 0.0731707 0 c 36 34 1015 985 bf 0.677317 0.0682927 0 c 35 34 1051 985 bf 36 34 1086 985 bf 0.665366 0.0634146 0 c 35 34 1122 985
 bf 36 34 1157 985 bf 36 34 1193 985 bf 0.653415 0.0585366 0 c 35 34 1229 985 bf 36 34 1264 985 bf 35 34 1300 985 bf 36 34 1335 985 bf 36 34 1371 985 bf 35 34 1407 985 bf 36 34 1442 985 bf 0.641463 0.0536585 0 c 35 34 1478 985 bf 36 34 1513 985 bf 36
 34 1549 985 bf 35 34 1585 985 bf 36 34 1620 985 bf 35 34 1656 985 bf 36 34 1691 985 bf 36 34 1727 985 bf 35 34 1763 985 bf 36 34 1798 985 bf 36 34 1834 985 bf 35 34 1870 985 bf 36 34 1905 985 bf 35 34 1941 985 bf 36 34 1976 985 bf 36 34 2012 985 bf
 35 34 2048 985 bf 36 34 2083 985 bf 0 0.254302 0.663837 c 36 34 374 1019 bf 0 0.725233 0.948721 c 35 34 410 1019 bf 0.416087 0.90087 0.57913 c 36 34 445 1019 bf 0.794348 0.983478 0.196522 c 36 34 481 1019 bf 0.903051 0.79661 0.0894915 c 35 34 517
 1019 bf 0.938305 0.579661 0.0569492 c 36 34 552 1019 bf 0.964746 0.416949 0.0325424 c 35 34 588 1019 bf 0.984576 0.294915 0.0142373 c 36 34 623 1019 bf 1 0.2 0 c 36 34 659 1019 bf 0.928293 0.170732 0 c 35 34 695 1019 bf 0.880488 0.15122 0 c 36 34
 730 1019 bf 0.832683 0.131707 0 c 35 34 766 1019 bf 0.796829 0.117073 0 c 36 34 801 1019 bf 0.760976 0.102439 0 c 36 34 837 1019 bf 0.737073 0.0926829 0 c 35 34 873 1019 bf 0.713171 0.0829268 0 c 36 34 908 1019 bf 0.701219 0.0780488 0 c 35 34 944
 1019 bf 0.689268 0.0731707 0 c 36 34 979 1019 bf 0.677317 0.0682927 0 c 36 34 1015 1019 bf 0.665366 0.0634146 0 c 35 34 1051 1019 bf 36 34 1086 1019 bf 0.653415 0.0585366 0 c 35 34 1122 1019 bf 36 34 1157 1019 bf 0.641463 0.0536585 0 c 36 34 1193
 1019 bf 35 34 1229 1019 bf 36 34 1264 1019 bf 35 34 1300 1019 bf 0.629512 0.0487805 0 c 36 34 1335 1019 bf 36 34 1371 1019 bf 35 34 1407 1019 bf 36 34 1442 1019 bf 35 34 1478 1019 bf 36 34 1513 1019 bf 36 34 1549 1019 bf 35 34 1585 1019 bf 36 34
 1620 1019 bf 35 34 1656 1019 bf 36 34 1691 1019 bf 36 34 1727 1019 bf 35 34 1763 1019 bf 36 34 1798 1019 bf 36 34 1834 1019 bf 35 34 1870 1019 bf 36 34 1905 1019 bf 35 34 1941 1019 bf 36 34 1976 1019 bf 36 34 2012 1019 bf 35 34 2048 1019 bf 36 34
 2083 1019 bf 0 0.254302 0.663837 c 36 34 374 1053 bf 0 0.725233 0.948721 c 35 34 410 1053 bf 0.416087 0.90087 0.57913 c 36 34 445 1053 bf 0.794348 0.983478 0.196522 c 36 34 481 1053 bf 0.903051 0.79661 0.0894915 c 35 34 517 1053 bf 0.938305 0.579661
 0.0569492 c 36 34 552 1053 bf 0.964746 0.416949 0.0325424 c 35 34 588 1053 bf 0.984576 0.294915 0.0142373 c 36 34 623 1053 bf 1 0.2 0 c 36 34 659 1053 bf 0.928293 0.170732 0 c 35 34 695 1053 bf 0.868537 0.146341 0 c 36 34 730 1053 bf 0.820732
 0.126829 0 c 35 34 766 1053 bf 0.784878 0.112195 0 c 36 34 801 1053 bf 0.760976 0.102439 0 c 36 34 837 1053 bf 0.725122 0.0878049 0 c 35 34 873 1053 bf 0.713171 0.0829268 0 c 36 34 908 1053 bf 0.689268 0.0731707 0 c 35 34 944 1053 bf 0.677317
 0.0682927 0 c 36 34 979 1053 bf 0.665366 0.0634146 0 c 36 34 1015 1053 bf 0.653415 0.0585366 0 c 35 34 1051 1053 bf 0.641463 0.0536585 0 c 36 34 1086 1053 bf 35 34 1122 1053 bf 36 34 1157 1053 bf 0.629512 0.0487805 0 c 36 34 1193 1053 bf 35 34 1229
 1053 bf 36 34 1264 1053 bf 0.617561 0.0439024 0 c 35 34 1300 1053 bf 36 34 1335 1053 bf 36 34 1371 1053 bf 35 34 1407 1053 bf 36 34 1442 1053 bf 35 34 1478 1053 bf 36 34 1513 1053 bf 36 34 1549 1053 bf 35 34 1585 1053 bf 36 34 1620 1053 bf 35 34
 1656 1053 bf 0.60561 0.0390244 0 c 36 34 1691 1053 bf 36 34 1727 1053 bf 35 34 1763 1053 bf 36 34 1798 1053 bf 36 34 1834 1053 bf 35 34 1870 1053 bf 36 34 1905 1053 bf 35 34 1941 1053 bf 36 34 1976 1053 bf 36 34 2012 1053 bf 35 34 2048 1053 bf 36 34
 2083 1053 bf 0 0.254302 0.663837 c 36 34 374 1087 bf 0 0.725233 0.948721 c 35 34 410 1087 bf 0.416087 0.90087 0.57913 c 36 34 445 1087 bf 0.794348 0.983478 0.196522 c 36 34 481 1087 bf 0.903051 0.79661 0.0894915 c 35 34 517 1087 bf 0.938305 0.579661
 0.0569492 c 36 34 552 1087 bf 0.964746 0.416949 0.0325424 c 35 34 588 1087 bf 0.984576 0.294915 0.0142373 c 36 34 623 1087 bf 1 0.2 0 c 36 34 659 1087 bf 0.928293 0.170732 0 c 35 34 695 1087 bf 0.868537 0.146341 0 c 36 34 730 1087 bf 0.820732
 0.126829 0 c 35 34 766 1087 bf 0.784878 0.112195 0 c 36 34 801 1087 bf 0.749024 0.097561 0 c 36 34 837 1087 bf 0.725122 0.0878049 0 c 35 34 873 1087 bf 0.701219 0.0780488 0 c 36 34 908 1087 bf 0.689268 0.0731707 0 c 35 34 944 1087 bf 0.665366
 0.0634146 0 c 36 34 979 1087 bf 0.653415 0.0585366 0 c 36 34 1015 1087 bf 0.641463 0.0536585 0 c 35 34 1051 1087 bf 36 34 1086 1087 bf 0.629512 0.0487805 0 c 35 34 1122 1087 bf 36 34 1157 1087 bf 0.617561 0.0439024 0 c 36 34 1193 1087 bf 35 34 1229
 1087 bf 36 34 1264 1087 bf 0.60561 0.0390244 0 c 35 34 1300 1087 bf 36 34 1335 1087 bf 36 34 1371 1087 bf 35 34 1407 1087 bf 36 34 1442 1087 bf 35 34 1478 1087 bf 36 34 1513 1087 bf 36 34 1549 1087 bf 35 34 1585 1087 bf 36 34 1620 1087 bf 0.593659
 0.0341463 0 c 35 34 1656 1087 bf 36 34 1691 1087 bf 36 34 1727 1087 bf 35 34 1763 1087 bf 36 34 1798 1087 bf 36 34 1834 1087 bf 35 34 1870 1087 bf 36 34 1905 1087 bf 35 34 1941 1087 bf 36 34 1976 1087 bf 36 34 2012 1087 bf 35 34 2048 1087 bf 36 34
 2083 1087 bf 0 0.254302 0.663837 c 36 34 374 1121 bf 0 0.725233 0.948721 c 35 34 410 1121 bf 0.416087 0.90087 0.57913 c 36 34 445 1121 bf 0.794348 0.983478 0.196522 c 36 34 481 1121 bf 0.903051 0.79661 0.0894915 c 35 34 517 1121 bf 0.938305 0.579661
 0.0569492 c 36 34 552 1121 bf 0.964746 0.416949 0.0325424 c 35 34 588 1121 bf 0.984576 0.294915 0.0142373 c 36 34 623 1121 bf 0.988049 0.195122 0 c 36 34 659 1121 bf 0.928293 0.170732 0 c 35 34 695 1121 bf 0.868537 0.146341 0 c 36 34 730 1121 bf
 0.820732 0.126829 0 c 35 34 766 1121 bf 0.784878 0.112195 0 c 36 34 801 1121 bf 0.749024 0.097561 0 c 36 34 837 1121 bf 0.725122 0.0878049 0 c 35 34 873 1121 bf 0.701219 0.0780488 0 c 36 34 908 1121 bf 0.677317 0.0682927 0 c 35 34 944 1121 bf
 0.665366 0.0634146 0 c 36 34 979 1121 bf 0.653415 0.0585366 0 c 36 34 1015 1121 bf 0.641463 0.0536585 0 c 35 34 1051 1121 bf 0.629512 0.0487805 0 c 36 34 1086 1121 bf 0.617561 0.0439024 0 c 35 34 1122 1121 bf 36 34 1157 1121 bf 0.60561 0.0390244 0 c
 36 34 1193 1121 bf 35 34 1229 1121 bf 36 34 1264 1121 bf 0.593659 0.0341463 0 c 35 34 1300 1121 bf 36 34 1335 1121 bf 36 34 1371 1121 bf 35 34 1407 1121 bf 36 34 1442 1121 bf 35 34 1478 1121 bf 36 34 1513 1121 bf 36 34 1549 1121 bf 35 34 1585 1121
 bf 36 34 1620 1121 bf 35 34 1656 1121 bf 0.581707 0.0292683 0 c 36 34 1691 1121 bf 36 34 1727 1121 bf 35 34 1763 1121 bf 36 34 1798 1121 bf 36 34 1834 1121 bf 35 34 1870 1121 bf 36 34 1905 1121 bf 35 34 1941 1121 bf 36 34 1976 1121 bf 36 34 2012
 1121 bf 35 34 2048 1121 bf 36 34 2083 1121 bf 0 0.254302 0.663837 c 36 34 374 1155 bf 0 0.725233 0.948721 c 35 34 410 1155 bf 0.416087 0.90087 0.57913 c 36 34 445 1155 bf 0.794348 0.983478 0.196522 c 36 34 481 1155 bf 0.903051 0.79661 0.0894915 c 35
 34 517 1155 bf 0.938305 0.579661 0.0569492 c 36 34 552 1155 bf 0.964746 0.416949 0.0325424 c 35 34 588 1155 bf 0.98678 0.281356 0.0122034 c 36 34 623 1155 bf 0.988049 0.195122 0 c 36 34 659 1155 bf 0.916341 0.165854 0 c 35 34 695 1155 bf 0.868537
 0.146341 0 c 36 34 730 1155 bf 0.820732 0.126829 0 c 35 34 766 1155 bf 0.772927 0.107317 0 c 36 34 801 1155 bf 0.749024 0.097561 0 c 36 34 837 1155 bf 0.713171 0.0829268 0 c 35 34 873 1155 bf 0.689268 0.0731707 0 c 36 34 908 1155 bf 0.677317
 0.0682927 0 c 35 34 944 1155 bf 0.653415 0.0585366 0 c 36 34 979 1155 bf 0.641463 0.0536585 0 c 36 34 1015 1155 bf 0.629512 0.0487805 0 c 35 34 1051 1155 bf 0.617561 0.0439024 0 c 36 34 1086 1155 bf 35 34 1122 1155 bf 0.60561 0.0390244 0 c 36 34
 1157 1155 bf 36 34 1193 1155 bf 0.593659 0.0341463 0 c 35 34 1229 1155 bf 36 34 1264 1155 bf 35 34 1300 1155 bf 36 34 1335 1155 bf 0.581707 0.0292683 0 c 36 34 1371 1155 bf 35 34 1407 1155 bf 36 34 1442 1155 bf 35 34 1478 1155 bf 36 34 1513 1155 bf
 36 34 1549 1155 bf 35 34 1585 1155 bf 36 34 1620 1155 bf 35 34 1656 1155 bf 36 34 1691 1155 bf 36 34 1727 1155 bf 35 34 1763 1155 bf 36 34 1798 1155 bf 36 34 1834 1155 bf 35 34 1870 1155 bf 36 34 1905 1155 bf 35 34 1941 1155 bf 36 34 1976 1155 bf 36
 34 2012 1155 bf 35 34 2048 1155 bf 36 34 2083 1155 bf 0 0.254302 0.663837 c 36 34 374 1189 bf 0 0.725233 0.948721 c 35 34 410 1189 bf 0.416087 0.90087 0.57913 c 36 34 445 1189 bf 0.794348 0.983478 0.196522 c 36 34 481 1189 bf 0.905254 0.783051
 0.0874576 c 35 34 517 1189 bf 0.938305 0.579661 0.0569492 c 36 34 552 1189 bf 0.964746 0.416949 0.0325424 c 35 34 588 1189 bf 0.98678 0.281356 0.0122034 c 36 34 623 1189 bf 0.988049 0.195122 0 c 36 34 659 1189 bf 0.916341 0.165854 0 c 35 34 695 1189
 bf 0.856585 0.141463 0 c 36 34 730 1189 bf 0.80878 0.121951 0 c 35 34 766 1189 bf 0.772927 0.107317 0 c 36 34 801 1189 bf 0.737073 0.0926829 0 c 36 34 837 1189 bf 0.713171 0.0829268 0 c 35 34 873 1189 bf 0.689268 0.0731707 0 c 36 34 908 1189 bf
 0.665366 0.0634146 0 c 35 34 944 1189 bf 0.653415 0.0585366 0 c 36 34 979 1189 bf 0.641463 0.0536585 0 c 36 34 1015 1189 bf 0.629512 0.0487805 0 c 35 34 1051 1189 bf 0.617561 0.0439024 0 c 36 34 1086 1189 bf 0.60561 0.0390244 0 c 35 34 1122 1189 bf
 36 34 1157 1189 bf 0.593659 0.0341463 0 c 36 34 1193 1189 bf 35 34 1229 1189 bf 0.581707 0.0292683 0 c 36 34 1264 1189 bf 35 34 1300 1189 bf 36 34 1335 1189 bf 36 34 1371 1189 bf 35 34 1407 1189 bf 0.569756 0.0243902 0 c 36 34 1442 1189 bf 35 34
 1478 1189 bf 36 34 1513 1189 bf 36 34 1549 1189 bf 35 34 1585 1189 bf 36 34 1620 1189 bf 35 34 1656 1189 bf 36 34 1691 1189 bf 36 34 1727 1189 bf 35 34 1763 1189 bf 36 34 1798 1189 bf 36 34 1834 1189 bf 35 34 1870 1189 bf 36 34 1905 1189 bf 35 34
 1941 1189 bf 36 34 1976 1189 bf 36 34 2012 1189 bf 35 34 2048 1189 bf 36 34 2083 1189 bf 0 0.254302 0.663837 c 36 34 374 1223 bf 0 0.725233 0.948721 c 35 34 410 1223 bf 0.416087 0.90087 0.57913 c 36 34 445 1223 bf 0.794348 0.983478 0.196522 c 36 34
 481 1223 bf 0.905254 0.783051 0.0874576 c 35 34 517 1223 bf 0.938305 0.579661 0.0569492 c 36 34 552 1223 bf 0.964746 0.416949 0.0325424 c 35 34 588 1223 bf 0.98678 0.281356 0.0122034 c 36 34 623 1223 bf 0.988049 0.195122 0 c 36 34 659 1223 bf
 0.916341 0.165854 0 c 35 34 695 1223 bf 0.856585 0.141463 0 c 36 34 730 1223 bf 0.80878 0.121951 0 c 35 34 766 1223 bf 0.772927 0.107317 0 c 36 34 801 1223 bf 0.737073 0.0926829 0 c 36 34 837 1223 bf 0.713171 0.0829268 0 c 35 34 873 1223 bf 0.689268
 0.0731707 0 c 36 34 908 1223 bf 0.665366 0.0634146 0 c 35 34 944 1223 bf 0.653415 0.0585366 0 c 36 34 979 1223 bf 0.629512 0.0487805 0 c 36 34 1015 1223 bf 0.617561 0.0439024 0 c 35 34 1051 1223 bf 0.60561 0.0390244 0 c 36 34 1086 1223 bf 35 34 1122
 1223 bf 0.593659 0.0341463 0 c 36 34 1157 1223 bf 36 34 1193 1223 bf 0.581707 0.0292683 0 c 35 34 1229 1223 bf 36 34 1264 1223 bf 0.569756 0.0243902 0 c 35 34 1300 1223 bf 36 34 1335 1223 bf 36 34 1371 1223 bf 35 34 1407 1223 bf 36 34 1442 1223 bf
 35 34 1478 1223 bf 36 34 1513 1223 bf 36 34 1549 1223 bf 0.557805 0.0195122 0 c 35 34 1585 1223 bf 36 34 1620 1223 bf 35 34 1656 1223 bf 36 34 1691 1223 bf 36 34 1727 1223 bf 35 34 1763 1223 bf 36 34 1798 1223 bf 36 34 1834 1223 bf 35 34 1870 1223
 bf 36 34 1905 1223 bf 35 34 1941 1223 bf 36 34 1976 1223 bf 36 34 2012 1223 bf 35 34 2048 1223 bf 36 34 2083 1223 bf 0 0.254302 0.663837 c 36 34 374 1257 bf 0 0.725233 0.948721 c 35 34 410 1257 bf 0.416087 0.90087 0.57913 c 36 34 445 1257 bf
 0.794348 0.983478 0.196522 c 36 34 481 1257 bf 0.905254 0.783051 0.0874576 c 35 34 517 1257 bf 0.938305 0.579661 0.0569492 c 36 34 552 1257 bf 0.966949 0.40339 0.0305085 c 35 34 588 1257 bf 0.98678 0.281356 0.0122034 c 36 34 623 1257 bf 0.988049
 0.195122 0 c 36 34 659 1257 bf 0.916341 0.165854 0 c 35 34 695 1257 bf 0.856585 0.141463 0 c 36 34 730 1257 bf 0.80878 0.121951 0 c 35 34 766 1257 bf 0.772927 0.107317 0 c 36 34 801 1257 bf 0.737073 0.0926829 0 c 36 34 837 1257 bf 0.713171 0.0829268
 0 c 35 34 873 1257 bf 0.689268 0.0731707 0 c 36 34 908 1257 bf 0.665366 0.0634146 0 c 35 34 944 1257 bf 0.641463 0.0536585 0 c 36 34 979 1257 bf 0.629512 0.0487805 0 c 36 34 1015 1257 bf 0.617561 0.0439024 0 c 35 34 1051 1257 bf 0.60561 0.0390244 0
 c 36 34 1086 1257 bf 0.593659 0.0341463 0 c 35 34 1122 1257 bf 36 34 1157 1257 bf 0.581707 0.0292683 0 c 36 34 1193 1257 bf 35 34 1229 1257 bf 0.569756 0.0243902 0 c 36 34 1264 1257 bf 35 34 1300 1257 bf 36 34 1335 1257 bf 36 34 1371 1257 bf
 0.557805 0.0195122 0 c 35 34 1407 1257 bf 36 34 1442 1257 bf 35 34 1478 1257 bf 36 34 1513 1257 bf 36 34 1549 1257 bf 35 34 1585 1257 bf 36 34 1620 1257 bf 35 34 1656 1257 bf 36 34 1691 1257 bf 36 34 1727 1257 bf 35 34 1763 1257 bf 36 34 1798 1257
 bf 36 34 1834 1257 bf 35 34 1870 1257 bf 36 34 1905 1257 bf 35 34 1941 1257 bf 36 34 1976 1257 bf 36 34 2012 1257 bf 35 34 2048 1257 bf 36 34 2083 1257 bf 0 0.254302 0.663837 c 36 34 374 1291 bf 0 0.725233 0.948721 c 35 34 410 1291 bf 0.416087
 0.90087 0.57913 c 36 34 445 1291 bf 0.794348 0.983478 0.196522 c 36 34 481 1291 bf 0.905254 0.783051 0.0874576 c 35 34 517 1291 bf 0.938305 0.579661 0.0569492 c 36 34 552 1291 bf 0.966949 0.40339 0.0305085 c 35 34 588 1291 bf 0.98678 0.281356
 0.0122034 c 36 34 623 1291 bf 0.988049 0.195122 0 c 36 34 659 1291 bf 0.916341 0.165854 0 c 35 34 695 1291 bf 0.856585 0.141463 0 c 36 34 730 1291 bf 0.80878 0.121951 0 c 35 34 766 1291 bf 0.772927 0.107317 0 c 36 34 801 1291 bf 0.737073 0.0926829 0
 c 36 34 837 1291 bf 0.701219 0.0780488 0 c 35 34 873 1291 bf 0.677317 0.0682927 0 c 36 34 908 1291 bf 0.665366 0.0634146 0 c 35 34 944 1291 bf 0.641463 0.0536585 0 c 36 34 979 1291 bf 0.629512 0.0487805 0 c 36 34 1015 1291 bf 0.617561 0.0439024 0 c
 35 34 1051 1291 bf 0.60561 0.0390244 0 c 36 34 1086 1291 bf 0.593659 0.0341463 0 c 35 34 1122 1291 bf 0.581707 0.0292683 0 c 36 34 1157 1291 bf 36 34 1193 1291 bf 0.569756 0.0243902 0 c 35 34 1229 1291 bf 36 34 1264 1291 bf 35 34 1300 1291 bf
 0.557805 0.0195122 0 c 36 34 1335 1291 bf 36 34 1371 1291 bf 35 34 1407 1291 bf 36 34 1442 1291 bf 35 34 1478 1291 bf 36 34 1513 1291 bf 36 34 1549 1291 bf 0.545854 0.0146341 0 c 35 34 1585 1291 bf 36 34 1620 1291 bf 35 34 1656 1291 bf 36 34 1691
 1291 bf 36 34 1727 1291 bf 35 34 1763 1291 bf 36 34 1798 1291 bf 36 34 1834 1291 bf 35 34 1870 1291 bf 36 34 1905 1291 bf 35 34 1941 1291 bf 36 34 1976 1291 bf 36 34 2012 1291 bf 35 34 2048 1291 bf 36 34 2083 1291 bf 0 0.254302 0.663837 c 36 34 374
 1325 bf 0 0.725233 0.948721 c 35 34 410 1325 bf 0.416087 0.90087 0.57913 c 36 34 445 1325 bf 0.794348 0.983478 0.196522 c 36 34 481 1325 bf 0.905254 0.783051 0.0874576 c 35 34 517 1325 bf 0.940508 0.566102 0.0549153 c 36 34 552 1325 bf 0.966949
 0.40339 0.0305085 c 35 34 588 1325 bf 0.98678 0.281356 0.0122034 c 36 34 623 1325 bf 0.988049 0.195122 0 c 36 34 659 1325 bf 0.916341 0.165854 0 c 35 34 695 1325 bf 0.856585 0.141463 0 c 36 34 730 1325 bf 0.80878 0.121951 0 c 35 34 766 1325 bf
 0.760976 0.102439 0 c 36 34 801 1325 bf 0.737073 0.0926829 0 c 36 34 837 1325 bf 0.701219 0.0780488 0 c 35 34 873 1325 bf 0.677317 0.0682927 0 c 36 34 908 1325 bf 0.653415 0.0585366 0 c 35 34 944 1325 bf 0.641463 0.0536585 0 c 36 34 979 1325 bf
 0.629512 0.0487805 0 c 36 34 1015 1325 bf 0.60561 0.0390244 0 c 35 34 1051 1325 bf 36 34 1086 1325 bf 0.593659 0.0341463 0 c 35 34 1122 1325 bf 0.581707 0.0292683 0 c 36 34 1157 1325 bf 36 34 1193 1325 bf 0.569756 0.0243902 0 c 35 34 1229 1325 bf 36
 34 1264 1325 bf 0.557805 0.0195122 0 c 35 34 1300 1325 bf 36 34 1335 1325 bf 36 34 1371 1325 bf 35 34 1407 1325 bf 0.545854 0.0146341 0 c 36 34 1442 1325 bf 35 34 1478 1325 bf 36 34 1513 1325 bf 36 34 1549 1325 bf 35 34 1585 1325 bf 36 34 1620 1325
 bf 35 34 1656 1325 bf 36 34 1691 1325 bf 36 34 1727 1325 bf 35 34 1763 1325 bf 36 34 1798 1325 bf 36 34 1834 1325 bf 35 34 1870 1325 bf 36 34 1905 1325 bf 35 34 1941 1325 bf 36 34 1976 1325 bf 36 34 2012 1325 bf 35 34 2048 1325 bf 36 34 2083 1325 bf
 0 0.254302 0.663837 c 36 34 374 1359 bf 0 0.725233 0.948721 c 35 34 410 1359 bf 0.416087 0.90087 0.57913 c 36 34 445 1359 bf 0.794348 0.983478 0.196522 c 36 34 481 1359 bf 0.905254 0.783051 0.0874576 c 35 34 517 1359 bf 0.940508 0.566102 0.0549153 c
 36 34 552 1359 bf 0.966949 0.40339 0.0305085 c 35 34 588 1359 bf 0.98678 0.281356 0.0122034 c 36 34 623 1359 bf 0.988049 0.195122 0 c 36 34 659 1359 bf 0.916341 0.165854 0 c 35 34 695 1359 bf 0.856585 0.141463 0 c 36 34 730 1359 bf 0.80878 0.121951
 0 c 35 34 766 1359 bf 0.760976 0.102439 0 c 36 34 801 1359 bf 0.737073 0.0926829 0 c 36 34 837 1359 bf 0.701219 0.0780488 0 c 35 34 873 1359 bf 0.677317 0.0682927 0 c 36 34 908 1359 bf 0.653415 0.0585366 0 c 35 34 944 1359 bf 0.641463 0.0536585 0 c
 36 34 979 1359 bf 0.617561 0.0439024 0 c 36 34 1015 1359 bf 0.60561 0.0390244 0 c 35 34 1051 1359 bf 0.593659 0.0341463 0 c 36 34 1086 1359 bf 35 34 1122 1359 bf 0.581707 0.0292683 0 c 36 34 1157 1359 bf 0.569756 0.0243902 0 c 36 34 1193 1359 bf 35
 34 1229 1359 bf 0.557805 0.0195122 0 c 36 34 1264 1359 bf 35 34 1300 1359 bf 36 34 1335 1359 bf 0.545854 0.0146341 0 c 36 34 1371 1359 bf 35 34 1407 1359 bf 36 34 1442 1359 bf 35 34 1478 1359 bf 36 34 1513 1359 bf 36 34 1549 1359 bf 35 34 1585 1359
 bf 36 34 1620 1359 bf 35 34 1656 1359 bf 36 34 1691 1359 bf 0.533902 0.0097561 0 c 36 34 1727 1359 bf 35 34 1763 1359 bf 36 34 1798 1359 bf 36 34 1834 1359 bf 35 34 1870 1359 bf 36 34 1905 1359 bf 35 34 1941 1359 bf 36 34 1976 1359 bf 36 34 2012
 1359 bf 35 34 2048 1359 bf 36 34 2083 1359 bf 0 0.254302 0.663837 c 36 34 374 1393 bf 0 0.725233 0.948721 c 35 34 410 1393 bf 0.416087 0.90087 0.57913 c 36 34 445 1393 bf 0.794348 0.983478 0.196522 c 36 34 481 1393 bf 0.905254 0.783051 0.0874576 c
 35 34 517 1393 bf 0.940508 0.566102 0.0549153 c 36 34 552 1393 bf 0.966949 0.40339 0.0305085 c 35 34 588 1393 bf 0.98678 0.281356 0.0122034 c 36 34 623 1393 bf 0.988049 0.195122 0 c 36 34 659 1393 bf 0.916341 0.165854 0 c 35 34 695 1393 bf 0.856585
 0.141463 0 c 36 34 730 1393 bf 0.80878 0.121951 0 c 35 34 766 1393 bf 0.760976 0.102439 0 c 36 34 801 1393 bf 0.725122 0.0878049 0 c 36 34 837 1393 bf 0.701219 0.0780488 0 c 35 34 873 1393 bf 0.677317 0.0682927 0 c 36 34 908 1393 bf 0.653415
 0.0585366 0 c 35 34 944 1393 bf 0.641463 0.0536585 0 c 36 34 979 1393 bf 0.617561 0.0439024 0 c 36 34 1015 1393 bf 0.60561 0.0390244 0 c 35 34 1051 1393 bf 0.593659 0.0341463 0 c 36 34 1086 1393 bf 0.581707 0.0292683 0 c 35 34 1122 1393 bf 36 34
 1157 1393 bf 0.569756 0.0243902 0 c 36 34 1193 1393 bf 35 34 1229 1393 bf 0.557805 0.0195122 0 c 36 34 1264 1393 bf 35 34 1300 1393 bf 0.545854 0.0146341 0 c 36 34 1335 1393 bf 36 34 1371 1393 bf 35 34 1407 1393 bf 36 34 1442 1393 bf 35 34 1478 1393
 bf 36 34 1513 1393 bf 0.533902 0.0097561 0 c 36 34 1549 1393 bf 35 34 1585 1393 bf 36 34 1620 1393 bf 35 34 1656 1393 bf 36 34 1691 1393 bf 36 34 1727 1393 bf 35 34 1763 1393 bf 36 34 1798 1393 bf 36 34 1834 1393 bf 35 34 1870 1393 bf 36 34 1905
 1393 bf 35 34 1941 1393 bf 36 34 1976 1393 bf 36 34 2012 1393 bf 35 34 2048 1393 bf 36 34 2083 1393 bf 0 0.254302 0.663837 c 36 35 374 1427 bf 0 0.725233 0.948721 c 35 35 410 1427 bf 0.416087 0.90087 0.57913 c 36 35 445 1427 bf 0.794348 0.983478
 0.196522 c 36 35 481 1427 bf 0.905254 0.783051 0.0874576 c 35 35 517 1427 bf 0.940508 0.566102 0.0549153 c 36 35 552 1427 bf 0.966949 0.40339 0.0305085 c 35 35 588 1427 bf 0.98678 0.281356 0.0122034 c 36 35 623 1427 bf 0.988049 0.195122 0 c 36 35
 659 1427 bf 0.916341 0.165854 0 c 35 35 695 1427 bf 0.856585 0.141463 0 c 36 35 730 1427 bf 0.80878 0.121951 0 c 35 35 766 1427 bf 0.760976 0.102439 0 c 36 35 801 1427 bf 0.725122 0.0878049 0 c 36 35 837 1427 bf 0.701219 0.0780488 0 c 35 35 873 1427
 bf 0.677317 0.0682927 0 c 36 35 908 1427 bf 0.653415 0.0585366 0 c 35 35 944 1427 bf 0.629512 0.0487805 0 c 36 35 979 1427 bf 0.617561 0.0439024 0 c 36 35 1015 1427 bf 0.60561 0.0390244 0 c 35 35 1051 1427 bf 0.593659 0.0341463 0 c 36 35 1086 1427
 bf 0.581707 0.0292683 0 c 35 35 1122 1427 bf 36 35 1157 1427 bf 0.569756 0.0243902 0 c 36 35 1193 1427 bf 0.557805 0.0195122 0 c 35 35 1229 1427 bf 36 35 1264 1427 bf 0.545854 0.0146341 0 c 35 35 1300 1427 bf 36 35 1335 1427 bf 36 35 1371 1427 bf 35
 35 1407 1427 bf 36 35 1442 1427 bf 0.533902 0.0097561 0 c 35 35 1478 1427 bf 36 35 1513 1427 bf 36 35 1549 1427 bf 35 35 1585 1427 bf 36 35 1620 1427 bf 35 35 1656 1427 bf 36 35 1691 1427 bf 36 35 1727 1427 bf 35 35 1763 1427 bf 36 35 1798 1427 bf
 36 35 1834 1427 bf 35 35 1870 1427 bf 36 35 1905 1427 bf 35 35 1941 1427 bf 36 35 1976 1427 bf 36 35 2012 1427 bf 35 35 2048 1427 bf 36 35 2083 1427 bf 0 0.254302 0.663837 c 36 34 374 1462 bf 0 0.725233 0.948721 c 35 34 410 1462 bf 0.416087 0.90087
 0.57913 c 36 34 445 1462 bf 0.794348 0.983478 0.196522 c 36 34 481 1462 bf 0.905254 0.783051 0.0874576 c 35 34 517 1462 bf 0.940508 0.566102 0.0549153 c 36 34 552 1462 bf 0.966949 0.40339 0.0305085 c 35 34 588 1462 bf 0.98678 0.281356 0.0122034 c 36
 34 623 1462 bf 0.988049 0.195122 0 c 36 34 659 1462 bf 0.916341 0.165854 0 c 35 34 695 1462 bf 0.856585 0.141463 0 c 36 34 730 1462 bf 0.796829 0.117073 0 c 35 34 766 1462 bf 0.760976 0.102439 0 c 36 34 801 1462 bf 0.725122 0.0878049 0 c 36 34 837
 1462 bf 0.701219 0.0780488 0 c 35 34 873 1462 bf 0.677317 0.0682927 0 c 36 34 908 1462 bf 0.653415 0.0585366 0 c 35 34 944 1462 bf 0.629512 0.0487805 0 c 36 34 979 1462 bf 0.617561 0.0439024 0 c 36 34 1015 1462 bf 0.60561 0.0390244 0 c 35 34 1051
 1462 bf 0.593659 0.0341463 0 c 36 34 1086 1462 bf 0.581707 0.0292683 0 c 35 34 1122 1462 bf 0.569756 0.0243902 0 c 36 34 1157 1462 bf 36 34 1193 1462 bf 0.557805 0.0195122 0 c 35 34 1229 1462 bf 36 34 1264 1462 bf 0.545854 0.0146341 0 c 35 34 1300
 1462 bf 36 34 1335 1462 bf 36 34 1371 1462 bf 0.533902 0.0097561 0 c 35 34 1407 1462 bf 36 34 1442 1462 bf 35 34 1478 1462 bf 36 34 1513 1462 bf 36 34 1549 1462 bf 35 34 1585 1462 bf 36 34 1620 1462 bf 35 34 1656 1462 bf 36 34 1691 1462 bf 36 34
 1727 1462 bf 35 34 1763 1462 bf 36 34 1798 1462 bf 36 34 1834 1462 bf 35 34 1870 1462 bf 36 34 1905 1462 bf 35 34 1941 1462 bf 36 34 1976 1462 bf 36 34 2012 1462 bf 35 34 2048 1462 bf 36 34 2083 1462 bf 0 0.254302 0.663837 c 36 34 374 1496 bf 0
 0.725233 0.948721 c 35 34 410 1496 bf 0.416087 0.90087 0.57913 c 36 34 445 1496 bf 0.794348 0.983478 0.196522 c 36 34 481 1496 bf 0.905254 0.783051 0.0874576 c 35 34 517 1496 bf 0.940508 0.566102 0.0549153 c 36 34 552 1496 bf 0.966949 0.40339
 0.0305085 c 35 34 588 1496 bf 0.98678 0.281356 0.0122034 c 36 34 623 1496 bf 0.976098 0.190244 0 c 36 34 659 1496 bf 0.916341 0.165854 0 c 35 34 695 1496 bf 0.856585 0.141463 0 c 36 34 730 1496 bf 0.796829 0.117073 0 c 35 34 766 1496 bf 0.760976
 0.102439 0 c 36 34 801 1496 bf 0.725122 0.0878049 0 c 36 34 837 1496 bf 0.701219 0.0780488 0 c 35 34 873 1496 bf 0.677317 0.0682927 0 c 36 34 908 1496 bf 0.653415 0.0585366 0 c 35 34 944 1496 bf 0.629512 0.0487805 0 c 36 34 979 1496 bf 0.617561
 0.0439024 0 c 36 34 1015 1496 bf 0.60561 0.0390244 0 c 35 34 1051 1496 bf 0.593659 0.0341463 0 c 36 34 1086 1496 bf 0.581707 0.0292683 0 c 35 34 1122 1496 bf 0.569756 0.0243902 0 c 36 34 1157 1496 bf 36 34 1193 1496 bf 0.557805 0.0195122 0 c 35 34
 1229 1496 bf 36 34 1264 1496 bf 0.545854 0.0146341 0 c 35 34 1300 1496 bf 36 34 1335 1496 bf 36 34 1371 1496 bf 0.533902 0.0097561 0 c 35 34 1407 1496 bf 36 34 1442 1496 bf 35 34 1478 1496 bf 36 34 1513 1496 bf 36 34 1549 1496 bf 35 34 1585 1496 bf
 36 34 1620 1496 bf 0.521951 0.00487805 0 c 35 34 1656 1496 bf 36 34 1691 1496 bf 36 34 1727 1496 bf 35 34 1763 1496 bf 36 34 1798 1496 bf 36 34 1834 1496 bf 35 34 1870 1496 bf 36 34 1905 1496 bf 35 34 1941 1496 bf 36 34 1976 1496 bf 36 34 2012 1496
 bf 35 34 2048 1496 bf 36 34 2083 1496 bf 0 0.254302 0.663837 c 36 34 374 1530 bf 0 0.725233 0.948721 c 35 34 410 1530 bf 0.416087 0.90087 0.57913 c 36 34 445 1530 bf 0.794348 0.983478 0.196522 c 36 34 481 1530 bf 0.905254 0.783051 0.0874576 c 35 34
 517 1530 bf 0.940508 0.566102 0.0549153 c 36 34 552 1530 bf 0.966949 0.40339 0.0305085 c 35 34 588 1530 bf 0.98678 0.281356 0.0122034 c 36 34 623 1530 bf 0.976098 0.190244 0 c 36 34 659 1530 bf 0.90439 0.160976 0 c 35 34 695 1530 bf 0.844634
 0.136585 0 c 36 34 730 1530 bf 0.796829 0.117073 0 c 35 34 766 1530 bf 0.760976 0.102439 0 c 36 34 801 1530 bf 0.725122 0.0878049 0 c 36 34 837 1530 bf 0.701219 0.0780488 0 c 35 34 873 1530 bf 0.665366 0.0634146 0 c 36 34 908 1530 bf 0.653415
 0.0585366 0 c 35 34 944 1530 bf 0.629512 0.0487805 0 c 36 34 979 1530 bf 0.617561 0.0439024 0 c 36 34 1015 1530 bf 0.60561 0.0390244 0 c 35 34 1051 1530 bf 0.593659 0.0341463 0 c 36 34 1086 1530 bf 0.581707 0.0292683 0 c 35 34 1122 1530 bf 0.569756
 0.0243902 0 c 36 34 1157 1530 bf 0.557805 0.0195122 0 c 36 34 1193 1530 bf 35 34 1229 1530 bf 0.545854 0.0146341 0 c 36 34 1264 1530 bf 35 34 1300 1530 bf 36 34 1335 1530 bf 0.533902 0.0097561 0 c 36 34 1371 1530 bf 35 34 1407 1530 bf 36 34 1442
 1530 bf 35 34 1478 1530 bf 36 34 1513 1530 bf 36 34 1549 1530 bf 0.521951 0.00487805 0 c 35 34 1585 1530 bf 36 34 1620 1530 bf 35 34 1656 1530 bf 36 34 1691 1530 bf 36 34 1727 1530 bf 35 34 1763 1530 bf 36 34 1798 1530 bf 36 34 1834 1530 bf 35 34
 1870 1530 bf 36 34 1905 1530 bf 35 34 1941 1530 bf 36 34 1976 1530 bf 36 34 2012 1530 bf 35 34 2048 1530 bf 36 34 2083 1530 bf 0 0.254302 0.663837 c 36 34 374 1564 bf 0 0.725233 0.948721 c 35 34 410 1564 bf 0.416087 0.90087 0.57913 c 36 34 445 1564
 bf 0.794348 0.983478 0.196522 c 36 34 481 1564 bf 0.905254 0.783051 0.0874576 c 35 34 517 1564 bf 0.940508 0.566102 0.0549153 c 36 34 552 1564 bf 0.966949 0.40339 0.0305085 c 35 34 588 1564 bf 0.98678 0.281356 0.0122034 c 36 34 623 1564 bf 0.976098
 0.190244 0 c 36 34 659 1564 bf 0.90439 0.160976 0 c 35 34 695 1564 bf 0.844634 0.136585 0 c 36 34 730 1564 bf 0.796829 0.117073 0 c 35 34 766 1564 bf 0.760976 0.102439 0 c 36 34 801 1564 bf 0.725122 0.0878049 0 c 36 34 837 1564 bf 0.701219 0.0780488
 0 c 35 34 873 1564 bf 0.665366 0.0634146 0 c 36 34 908 1564 bf 0.653415 0.0585366 0 c 35 34 944 1564 bf 0.629512 0.0487805 0 c 36 34 979 1564 bf 0.617561 0.0439024 0 c 36 34 1015 1564 bf 0.593659 0.0341463 0 c 35 34 1051 1564 bf 36 34 1086 1564 bf
 0.581707 0.0292683 0 c 35 34 1122 1564 bf 0.569756 0.0243902 0 c 36 34 1157 1564 bf 0.557805 0.0195122 0 c 36 34 1193 1564 bf 35 34 1229 1564 bf 0.545854 0.0146341 0 c 36 34 1264 1564 bf 35 34 1300 1564 bf 36 34 1335 1564 bf 0.533902 0.0097561 0 c
 36 34 1371 1564 bf 35 34 1407 1564 bf 36 34 1442 1564 bf 35 34 1478 1564 bf 36 34 1513 1564 bf 0.521951 0.00487805 0 c 36 34 1549 1564 bf 35 34 1585 1564 bf 36 34 1620 1564 bf 35 34 1656 1564 bf 36 34 1691 1564 bf 36 34 1727 1564 bf 35 34 1763 1564
 bf 36 34 1798 1564 bf 36 34 1834 1564 bf 35 34 1870 1564 bf 36 34 1905 1564 bf 35 34 1941 1564 bf 36 34 1976 1564 bf 36 34 2012 1564 bf 35 34 2048 1564 bf 36 34 2083 1564 bf 0 0.254302 0.663837 c 36 34 374 1598 bf 0 0.725233 0.948721 c 35 34 410
 1598 bf 0.416087 0.90087 0.57913 c 36 34 445 1598 bf 0.794348 0.983478 0.196522 c 36 34 481 1598 bf 0.905254 0.783051 0.0874576 c 35 34 517 1598 bf 0.940508 0.566102 0.0549153 c 36 34 552 1598 bf 0.966949 0.40339 0.0305085 c 35 34 588 1598 bf
 0.98678 0.281356 0.0122034 c 36 34 623 1598 bf 0.976098 0.190244 0 c 36 34 659 1598 bf 0.90439 0.160976 0 c 35 34 695 1598 bf 0.844634 0.136585 0 c 36 34 730 1598 bf 0.796829 0.117073 0 c 35 34 766 1598 bf 0.760976 0.102439 0 c 36 34 801 1598 bf
 0.725122 0.0878049 0 c 36 34 837 1598 bf 0.689268 0.0731707 0 c 35 34 873 1598 bf 0.665366 0.0634146 0 c 36 34 908 1598 bf 0.641463 0.0536585 0 c 35 34 944 1598 bf 0.629512 0.0487805 0 c 36 34 979 1598 bf 0.617561 0.0439024 0 c 36 34 1015 1598 bf
 0.593659 0.0341463 0 c 35 34 1051 1598 bf 0.581707 0.0292683 0 c 36 34 1086 1598 bf 35 34 1122 1598 bf 0.569756 0.0243902 0 c 36 34 1157 1598 bf 0.557805 0.0195122 0 c 36 34 1193 1598 bf 35 34 1229 1598 bf 0.545854 0.0146341 0 c 36 34 1264 1598 bf
 35 34 1300 1598 bf 0.533902 0.0097561 0 c 36 34 1335 1598 bf 36 34 1371 1598 bf 35 34 1407 1598 bf 36 34 1442 1598 bf 35 34 1478 1598 bf 0.521951 0.00487805 0 c 36 34 1513 1598 bf 36 34 1549 1598 bf 35 34 1585 1598 bf 36 34 1620 1598 bf 35 34 1656
 1598 bf 36 34 1691 1598 bf 36 34 1727 1598 bf 35 34 1763 1598 bf 36 34 1798 1598 bf 36 34 1834 1598 bf 35 34 1870 1598 bf 36 34 1905 1598 bf 35 34 1941 1598 bf 36 34 1976 1598 bf 36 34 2012 1598 bf 35 34 2048 1598 bf 36 34 2083 1598 bf 0 0.254302
 0.663837 c 36 34 374 1632 bf 0 0.725233 0.948721 c 35 34 410 1632 bf 0.416087 0.90087 0.57913 c 36 34 445 1632 bf 0.794348 0.983478 0.196522 c 36 34 481 1632 bf 0.905254 0.783051 0.0874576 c 35 34 517 1632 bf 0.940508 0.566102 0.0549153 c 36 34 552
 1632 bf 0.966949 0.40339 0.0305085 c 35 34 588 1632 bf 0.98678 0.281356 0.0122034 c 36 34 623 1632 bf 0.976098 0.190244 0 c 36 34 659 1632 bf 0.90439 0.160976 0 c 35 34 695 1632 bf 0.844634 0.136585 0 c 36 34 730 1632 bf 0.796829 0.117073 0 c 35 34
 766 1632 bf 0.760976 0.102439 0 c 36 34 801 1632 bf 0.725122 0.0878049 0 c 36 34 837 1632 bf 0.689268 0.0731707 0 c 35 34 873 1632 bf 0.665366 0.0634146 0 c 36 34 908 1632 bf 0.641463 0.0536585 0 c 35 34 944 1632 bf 0.629512 0.0487805 0 c 36 34 979
 1632 bf 0.617561 0.0439024 0 c 36 34 1015 1632 bf 0.593659 0.0341463 0 c 35 34 1051 1632 bf 0.581707 0.0292683 0 c 36 34 1086 1632 bf 35 34 1122 1632 bf 0.569756 0.0243902 0 c 36 34 1157 1632 bf 0.557805 0.0195122 0 c 36 34 1193 1632 bf 35 34 1229
 1632 bf 0.545854 0.0146341 0 c 36 34 1264 1632 bf 35 34 1300 1632 bf 0.533902 0.0097561 0 c 36 34 1335 1632 bf 36 34 1371 1632 bf 35 34 1407 1632 bf 36 34 1442 1632 bf 0.521951 0.00487805 0 c 35 34 1478 1632 bf 36 34 1513 1632 bf 36 34 1549 1632 bf
 35 34 1585 1632 bf 36 34 1620 1632 bf 35 34 1656 1632 bf 36 34 1691 1632 bf 36 34 1727 1632 bf 35 34 1763 1632 bf 36 34 1798 1632 bf 36 34 1834 1632 bf 35 34 1870 1632 bf 36 34 1905 1632 bf 35 34 1941 1632 bf 36 34 1976 1632 bf 36 34 2012 1632 bf 35
 34 2048 1632 bf 36 34 2083 1632 bf 0 0.254302 0.663837 c 36 34 374 1666 bf 0 0.725233 0.948721 c 35 34 410 1666 bf 0.416087 0.90087 0.57913 c 36 34 445 1666 bf 0.794348 0.983478 0.196522 c 36 34 481 1666 bf 0.905254 0.783051 0.0874576 c 35 34 517
 1666 bf 0.940508 0.566102 0.0549153 c 36 34 552 1666 bf 0.966949 0.40339 0.0305085 c 35 34 588 1666 bf 0.98678 0.281356 0.0122034 c 36 34 623 1666 bf 0.976098 0.190244 0 c 36 34 659 1666 bf 0.90439 0.160976 0 c 35 34 695 1666 bf 0.844634 0.136585 0
 c 36 34 730 1666 bf 0.796829 0.117073 0 c 35 34 766 1666 bf 0.760976 0.102439 0 c 36 34 801 1666 bf 0.725122 0.0878049 0 c 36 34 837 1666 bf 0.689268 0.0731707 0 c 35 34 873 1666 bf 0.665366 0.0634146 0 c 36 34 908 1666 bf 0.641463 0.0536585 0 c 35
 34 944 1666 bf 0.629512 0.0487805 0 c 36 34 979 1666 bf 0.60561 0.0390244 0 c 36 34 1015 1666 bf 0.593659 0.0341463 0 c 35 34 1051 1666 bf 0.581707 0.0292683 0 c 36 34 1086 1666 bf 35 34 1122 1666 bf 0.569756 0.0243902 0 c 36 34 1157 1666 bf
 0.557805 0.0195122 0 c 36 34 1193 1666 bf 35 34 1229 1666 bf 0.545854 0.0146341 0 c 36 34 1264 1666 bf 35 34 1300 1666 bf 0.533902 0.0097561 0 c 36 34 1335 1666 bf 36 34 1371 1666 bf 35 34 1407 1666 bf 36 34 1442 1666 bf 0.521951 0.00487805 0 c 35
 34 1478 1666 bf 36 34 1513 1666 bf 36 34 1549 1666 bf 35 34 1585 1666 bf 36 34 1620 1666 bf 35 34 1656 1666 bf 36 34 1691 1666 bf 36 34 1727 1666 bf 35 34 1763 1666 bf 36 34 1798 1666 bf 36 34 1834 1666 bf 35 34 1870 1666 bf 36 34 1905 1666 bf 35 34
 1941 1666 bf 36 34 1976 1666 bf 36 34 2012 1666 bf 35 34 2048 1666 bf 36 34 2083 1666 bf 0 0.254302 0.663837 c 36 34 374 1700 bf 0 0.725233 0.948721 c 35 34 410 1700 bf 0.416087 0.90087 0.57913 c 36 34 445 1700 bf 0.794348 0.983478 0.196522 c 36 34
 481 1700 bf 0.905254 0.783051 0.0874576 c 35 34 517 1700 bf 0.940508 0.566102 0.0549153 c 36 34 552 1700 bf 0.966949 0.40339 0.0305085 c 35 34 588 1700 bf 0.98678 0.281356 0.0122034 c 36 34 623 1700 bf 0.976098 0.190244 0 c 36 34 659 1700 bf 0.90439
 0.160976 0 c 35 34 695 1700 bf 0.844634 0.136585 0 c 36 34 730 1700 bf 0.796829 0.117073 0 c 35 34 766 1700 bf 0.760976 0.102439 0 c 36 34 801 1700 bf 0.725122 0.0878049 0 c 36 34 837 1700 bf 0.689268 0.0731707 0 c 35 34 873 1700 bf 0.665366
 0.0634146 0 c 36 34 908 1700 bf 0.641463 0.0536585 0 c 35 34 944 1700 bf 0.629512 0.0487805 0 c 36 34 979 1700 bf 0.60561 0.0390244 0 c 36 34 1015 1700 bf 0.593659 0.0341463 0 c 35 34 1051 1700 bf 0.581707 0.0292683 0 c 36 34 1086 1700 bf 0.569756
 0.0243902 0 c 35 34 1122 1700 bf 36 34 1157 1700 bf 0.557805 0.0195122 0 c 36 34 1193 1700 bf 0.545854 0.0146341 0 c 35 34 1229 1700 bf 36 34 1264 1700 bf 35 34 1300 1700 bf 0.533902 0.0097561 0 c 36 34 1335 1700 bf 36 34 1371 1700 bf 35 34 1407
 1700 bf 0.521951 0.00487805 0 c 36 34 1442 1700 bf 35 34 1478 1700 bf 36 34 1513 1700 bf 36 34 1549 1700 bf 35 34 1585 1700 bf 36 34 1620 1700 bf 35 34 1656 1700 bf 36 34 1691 1700 bf 36 34 1727 1700 bf 35 34 1763 1700 bf 36 34 1798 1700 bf 36 34
 1834 1700 bf 35 34 1870 1700 bf 36 34 1905 1700 bf 35 34 1941 1700 bf 36 34 1976 1700 bf 36 34 2012 1700 bf 35 34 2048 1700 bf 36 34 2083 1700 bf 0 0.254302 0.663837 c 36 34 374 1734 bf 0 0.725233 0.948721 c 35 34 410 1734 bf 0.416087 0.90087
 0.57913 c 36 34 445 1734 bf 0.794348 0.983478 0.196522 c 36 34 481 1734 bf 0.905254 0.783051 0.0874576 c 35 34 517 1734 bf 0.940508 0.566102 0.0549153 c 36 34 552 1734 bf 0.966949 0.40339 0.0305085 c 35 34 588 1734 bf 0.98678 0.281356 0.0122034 c 36
 34 623 1734 bf 0.976098 0.190244 0 c 36 34 659 1734 bf 0.90439 0.160976 0 c 35 34 695 1734 bf 0.844634 0.136585 0 c 36 34 730 1734 bf 0.796829 0.117073 0 c 35 34 766 1734 bf 0.760976 0.102439 0 c 36 34 801 1734 bf 0.725122 0.0878049 0 c 36 34 837
 1734 bf 0.689268 0.0731707 0 c 35 34 873 1734 bf 0.665366 0.0634146 0 c 36 34 908 1734 bf 0.641463 0.0536585 0 c 35 34 944 1734 bf 0.629512 0.0487805 0 c 36 34 979 1734 bf 0.60561 0.0390244 0 c 36 34 1015 1734 bf 0.593659 0.0341463 0 c 35 34 1051
 1734 bf 0.581707 0.0292683 0 c 36 34 1086 1734 bf 0.569756 0.0243902 0 c 35 34 1122 1734 bf 36 34 1157 1734 bf 0.557805 0.0195122 0 c 36 34 1193 1734 bf 0.545854 0.0146341 0 c 35 34 1229 1734 bf 36 34 1264 1734 bf 0.533902 0.0097561 0 c 35 34 1300
 1734 bf 36 34 1335 1734 bf 36 34 1371 1734 bf 35 34 1407 1734 bf 0.521951 0.00487805 0 c 36 34 1442 1734 bf 35 34 1478 1734 bf 36 34 1513 1734 bf 36 34 1549 1734 bf 35 34 1585 1734 bf 36 34 1620 1734 bf 35 34 1656 1734 bf 36 34 1691 1734 bf 36 34
 1727 1734 bf 35 34 1763 1734 bf 36 34 1798 1734 bf 36 34 1834 1734 bf 35 34 1870 1734 bf 36 34 1905 1734 bf 35 34 1941 1734 bf 36 34 1976 1734 bf 36 34 2012 1734 bf 35 34 2048 1734 bf 36 34 2083 1734 bf 0 0.254302 0.663837 c 36 34 374 1768 bf 0
 0.725233 0.948721 c 35 34 410 1768 bf 0.416087 0.90087 0.57913 c 36 34 445 1768 bf 0.794348 0.983478 0.196522 c 36 34 481 1768 bf 0.905254 0.783051 0.0874576 c 35 34 517 1768 bf 0.940508 0.566102 0.0549153 c 36 34 552 1768 bf 0.966949 0.40339
 0.0305085 c 35 34 588 1768 bf 0.98678 0.281356 0.0122034 c 36 34 623 1768 bf 0.976098 0.190244 0 c 36 34 659 1768 bf 0.90439 0.160976 0 c 35 34 695 1768 bf 0.844634 0.136585 0 c 36 34 730 1768 bf 0.796829 0.117073 0 c 35 34 766 1768 bf 0.760976
 0.102439 0 c 36 34 801 1768 bf 0.725122 0.0878049 0 c 36 34 837 1768 bf 0.689268 0.0731707 0 c 35 34 873 1768 bf 0.665366 0.0634146 0 c 36 34 908 1768 bf 0.641463 0.0536585 0 c 35 34 944 1768 bf 0.629512 0.0487805 0 c 36 34 979 1768 bf 0.60561
 0.0390244 0 c 36 34 1015 1768 bf 0.593659 0.0341463 0 c 35 34 1051 1768 bf 0.581707 0.0292683 0 c 36 34 1086 1768 bf 0.569756 0.0243902 0 c 35 34 1122 1768 bf 36 34 1157 1768 bf 0.557805 0.0195122 0 c 36 34 1193 1768 bf 0.545854 0.0146341 0 c 35 34
 1229 1768 bf 36 34 1264 1768 bf 0.533902 0.0097561 0 c 35 34 1300 1768 bf 36 34 1335 1768 bf 36 34 1371 1768 bf 35 34 1407 1768 bf 0.521951 0.00487805 0 c 36 34 1442 1768 bf 35 34 1478 1768 bf 36 34 1513 1768 bf 36 34 1549 1768 bf 35 34 1585 1768 bf
 36 34 1620 1768 bf 35 34 1656 1768 bf 36 34 1691 1768 bf 36 34 1727 1768 bf 35 34 1763 1768 bf 36 34 1798 1768 bf 36 34 1834 1768 bf 35 34 1870 1768 bf 36 34 1905 1768 bf 35 34 1941 1768 bf 36 34 1976 1768 bf 36 34 2012 1768 bf 35 34 2048 1768 bf 36
 34 2083 1768 bf 0 0.254302 0.663837 c 36 34 374 1802 bf 0 0.725233 0.948721 c 35 34 410 1802 bf 0.416087 0.90087 0.57913 c 36 34 445 1802 bf 0.794348 0.983478 0.196522 c 36 34 481 1802 bf 0.905254 0.783051 0.0874576 c 35 34 517 1802 bf 0.940508
 0.566102 0.0549153 c 36 34 552 1802 bf 0.966949 0.40339 0.0305085 c 35 34 588 1802 bf 0.98678 0.281356 0.0122034 c 36 34 623 1802 bf 0.976098 0.190244 0 c 36 34 659 1802 bf 0.90439 0.160976 0 c 35 34 695 1802 bf 0.844634 0.136585 0 c 36 34 730 1802
 bf 0.796829 0.117073 0 c 35 34 766 1802 bf 0.760976 0.102439 0 c 36 34 801 1802 bf 0.725122 0.0878049 0 c 36 34 837 1802 bf 0.689268 0.0731707 0 c 35 34 873 1802 bf 0.665366 0.0634146 0 c 36 34 908 1802 bf 0.641463 0.0536585 0 c 35 34 944 1802 bf
 0.629512 0.0487805 0 c 36 34 979 1802 bf 0.60561 0.0390244 0 c 36 34 1015 1802 bf 0.593659 0.0341463 0 c 35 34 1051 1802 bf 0.581707 0.0292683 0 c 36 34 1086 1802 bf 0.569756 0.0243902 0 c 35 34 1122 1802 bf 36 34 1157 1802 bf 0.557805 0.0195122 0 c
 36 34 1193 1802 bf 0.545854 0.0146341 0 c 35 34 1229 1802 bf 36 34 1264 1802 bf 0.533902 0.0097561 0 c 35 34 1300 1802 bf 36 34 1335 1802 bf 36 34 1371 1802 bf 35 34 1407 1802 bf 0.521951 0.00487805 0 c 36 34 1442 1802 bf 35 34 1478 1802 bf 36 34
 1513 1802 bf 36 34 1549 1802 bf 35 34 1585 1802 bf 36 34 1620 1802 bf 35 34 1656 1802 bf 36 34 1691 1802 bf 36 34 1727 1802 bf 35 34 1763 1802 bf 36 34 1798 1802 bf 36 34 1834 1802 bf 35 34 1870 1802 bf 36 34 1905 1802 bf 35 34 1941 1802 bf 36 34
 1976 1802 bf 36 34 2012 1802 bf 35 34 2048 1802 bf 36 34 2083 1802 bf 0 0.254302 0.663837 c 36 34 374 1836 bf 0 0.725233 0.948721 c 35 34 410 1836 bf 0.416087 0.90087 0.57913 c 36 34 445 1836 bf 0.794348 0.983478 0.196522 c 36 34 481 1836 bf
 0.905254 0.783051 0.0874576 c 35 34 517 1836 bf 0.940508 0.566102 0.0549153 c 36 34 552 1836 bf 0.966949 0.40339 0.0305085 c 35 34 588 1836 bf 0.98678 0.281356 0.0122034 c 36 34 623 1836 bf 0.976098 0.190244 0 c 36 34 659 1836 bf 0.90439 0.160976 0
 c 35 34 695 1836 bf 0.844634 0.136585 0 c 36 34 730 1836 bf 0.796829 0.117073 0 c 35 34 766 1836 bf 0.760976 0.102439 0 c 36 34 801 1836 bf 0.725122 0.0878049 0 c 36 34 837 1836 bf 0.689268 0.0731707 0 c 35 34 873 1836 bf 0.665366 0.0634146 0 c 36
 34 908 1836 bf 0.641463 0.0536585 0 c 35 34 944 1836 bf 0.629512 0.0487805 0 c 36 34 979 1836 bf 0.60561 0.0390244 0 c 36 34 1015 1836 bf 0.593659 0.0341463 0 c 35 34 1051 1836 bf 0.581707 0.0292683 0 c 36 34 1086 1836 bf 0.569756 0.0243902 0 c 35
 34 1122 1836 bf 36 34 1157 1836 bf 0.557805 0.0195122 0 c 36 34 1193 1836 bf 0.545854 0.0146341 0 c 35 34 1229 1836 bf 36 34 1264 1836 bf 0.533902 0.0097561 0 c 35 34 1300 1836 bf 36 34 1335 1836 bf 36 34 1371 1836 bf 35 34 1407 1836 bf 0.521951
 0.00487805 0 c 36 34 1442 1836 bf 35 34 1478 1836 bf 36 34 1513 1836 bf 36 34 1549 1836 bf 35 34 1585 1836 bf 36 34 1620 1836 bf 35 34 1656 1836 bf 36 34 1691 1836 bf 36 34 1727 1836 bf 35 34 1763 1836 bf 36 34 1798 1836 bf 36 34 1834 1836 bf 35 34
 1870 1836 bf 36 34 1905 1836 bf 35 34 1941 1836 bf 36 34 1976 1836 bf 36 34 2012 1836 bf 35 34 2048 1836 bf 36 34 2083 1836 bf 0 0.254302 0.663837 c 36 34 374 1870 bf 0 0.725233 0.948721 c 35 34 410 1870 bf 0.416087 0.90087 0.57913 c 36 34 445 1870
 bf 0.794348 0.983478 0.196522 c 36 34 481 1870 bf 0.905254 0.783051 0.0874576 c 35 34 517 1870 bf 0.940508 0.566102 0.0549153 c 36 34 552 1870 bf 0.966949 0.40339 0.0305085 c 35 34 588 1870 bf 0.98678 0.281356 0.0122034 c 36 34 623 1870 bf 0.976098
 0.190244 0 c 36 34 659 1870 bf 0.90439 0.160976 0 c 35 34 695 1870 bf 0.844634 0.136585 0 c 36 34 730 1870 bf 0.796829 0.117073 0 c 35 34 766 1870 bf 0.760976 0.102439 0 c 36 34 801 1870 bf 0.725122 0.0878049 0 c 36 34 837 1870 bf 0.689268 0.0731707
 0 c 35 34 873 1870 bf 0.665366 0.0634146 0 c 36 34 908 1870 bf 0.641463 0.0536585 0 c 35 34 944 1870 bf 0.629512 0.0487805 0 c 36 34 979 1870 bf 0.60561 0.0390244 0 c 36 34 1015 1870 bf 0.593659 0.0341463 0 c 35 34 1051 1870 bf 0.581707 0.0292683 0
 c 36 34 1086 1870 bf 0.569756 0.0243902 0 c 35 34 1122 1870 bf 36 34 1157 1870 bf 0.557805 0.0195122 0 c 36 34 1193 1870 bf 0.545854 0.0146341 0 c 35 34 1229 1870 bf 36 34 1264 1870 bf 0.533902 0.0097561 0 c 35 34 1300 1870 bf 36 34 1335 1870 bf 36
 34 1371 1870 bf 35 34 1407 1870 bf 0.521951 0.00487805 0 c 36 34 1442 1870 bf 35 34 1478 1870 bf 36 34 1513 1870 bf 36 34 1549 1870 bf 35 34 1585 1870 bf 36 34 1620 1870 bf 35 34 1656 1870 bf 36 34 1691 1870 bf 36 34 1727 1870 bf 35 34 1763 1870 bf
 36 34 1798 1870 bf 36 34 1834 1870 bf 35 34 1870 1870 bf 36 34 1905 1870 bf 35 34 1941 1870 bf 36 34 1976 1870 bf 36 34 2012 1870 bf 35 34 2048 1870 bf 36 34 2083 1870 bf 0 0.254302 0.663837 c 36 35 374 1904 bf 0 0.725233 0.948721 c 35 35 410 1904
 bf 0.416087 0.90087 0.57913 c 36 35 445 1904 bf 0.794348 0.983478 0.196522 c 36 35 481 1904 bf 0.905254 0.783051 0.0874576 c 35 35 517 1904 bf 0.940508 0.566102 0.0549153 c 36 35 552 1904 bf 0.966949 0.40339 0.0305085 c 35 35 588 1904 bf 0.98678
 0.281356 0.0122034 c 36 35 623 1904 bf 0.976098 0.190244 0 c 36 35 659 1904 bf 0.90439 0.160976 0 c 35 35 695 1904 bf 0.844634 0.136585 0 c 36 35 730 1904 bf 0.796829 0.117073 0 c 35 35 766 1904 bf 0.760976 0.102439 0 c 36 35 801 1904 bf 0.725122
 0.0878049 0 c 36 35 837 1904 bf 0.689268 0.0731707 0 c 35 35 873 1904 bf 0.665366 0.0634146 0 c 36 35 908 1904 bf 0.641463 0.0536585 0 c 35 35 944 1904 bf 0.629512 0.0487805 0 c 36 35 979 1904 bf 0.60561 0.0390244 0 c 36 35 1015 1904 bf 0.593659
 0.0341463 0 c 35 35 1051 1904 bf 0.581707 0.0292683 0 c 36 35 1086 1904 bf 0.569756 0.0243902 0 c 35 35 1122 1904 bf 36 35 1157 1904 bf 0.557805 0.0195122 0 c 36 35 1193 1904 bf 0.545854 0.0146341 0 c 35 35 1229 1904 bf 36 35 1264 1904 bf 0.533902
 0.0097561 0 c 35 35 1300 1904 bf 36 35 1335 1904 bf 36 35 1371 1904 bf 35 35 1407 1904 bf 0.521951 0.00487805 0 c 36 35 1442 1904 bf 35 35 1478 1904 bf 36 35 1513 1904 bf 36 35 1549 1904 bf 35 35 1585 1904 bf 36 35 1620 1904 bf 35 35 1656 1904 bf 36
 35 1691 1904 bf 36 35 1727 1904 bf 35 35 1763 1904 bf 36 35 1798 1904 bf 36 35 1834 1904 bf 35 35 1870 1904 bf 36 35 1905 1904 bf 35 35 1941 1904 bf 36 35 1976 1904 bf 36 35 2012 1904 bf 35 35 2048 1904 bf 36 35 2083 1904 bf 0 0.254302 0.663837 c 36
 34 374 1939 bf 0 0.725233 0.948721 c 35 34 410 1939 bf 0.416087 0.90087 0.57913 c 36 34 445 1939 bf 0.794348 0.983478 0.196522 c 36 34 481 1939 bf 0.905254 0.783051 0.0874576 c 35 34 517 1939 bf 0.940508 0.566102 0.0549153 c 36 34 552 1939 bf
 0.966949 0.40339 0.0305085 c 35 34 588 1939 bf 0.98678 0.281356 0.0122034 c 36 34 623 1939 bf 0.976098 0.190244 0 c 36 34 659 1939 bf 0.90439 0.160976 0 c 35 34 695 1939 bf 0.844634 0.136585 0 c 36 34 730 1939 bf 0.796829 0.117073 0 c 35 34 766 1939
 bf 0.760976 0.102439 0 c 36 34 801 1939 bf 0.725122 0.0878049 0 c 36 34 837 1939 bf 0.689268 0.0731707 0 c 35 34 873 1939 bf 0.665366 0.0634146 0 c 36 34 908 1939 bf 0.641463 0.0536585 0 c 35 34 944 1939 bf 0.629512 0.0487805 0 c 36 34 979 1939 bf
 0.60561 0.0390244 0 c 36 34 1015 1939 bf 0.593659 0.0341463 0 c 35 34 1051 1939 bf 0.581707 0.0292683 0 c 36 34 1086 1939 bf 0.569756 0.0243902 0 c 35 34 1122 1939 bf 36 34 1157 1939 bf 0.557805 0.0195122 0 c 36 34 1193 1939 bf 0.545854 0.0146341 0
 c 35 34 1229 1939 bf 36 34 1264 1939 bf 0.533902 0.0097561 0 c 35 34 1300 1939 bf 36 34 1335 1939 bf 36 34 1371 1939 bf 0.521951 0.00487805 0 c 35 34 1407 1939 bf 36 34 1442 1939 bf 35 34 1478 1939 bf 36 34 1513 1939 bf 36 34 1549 1939 bf 35 34 1585
 1939 bf 36 34 1620 1939 bf 35 34 1656 1939 bf 36 34 1691 1939 bf 36 34 1727 1939 bf 35 34 1763 1939 bf 36 34 1798 1939 bf 36 34 1834 1939 bf 35 34 1870 1939 bf 36 34 1905 1939 bf 35 34 1941 1939 bf 36 34 1976 1939 bf 36 34 2012 1939 bf 35 34 2048
 1939 bf 36 34 2083 1939 bf 0 0.254302 0.663837 c 36 34 374 1973 bf 0 0.725233 0.948721 c 35 34 410 1973 bf 0.416087 0.90087 0.57913 c 36 34 445 1973 bf 0.794348 0.983478 0.196522 c 36 34 481 1973 bf 0.905254 0.783051 0.0874576 c 35 34 517 1973 bf
 0.940508 0.566102 0.0549153 c 36 34 552 1973 bf 0.966949 0.40339 0.0305085 c 35 34 588 1973 bf 0.98678 0.281356 0.0122034 c 36 34 623 1973 bf 0.976098 0.190244 0 c 36 34 659 1973 bf 0.90439 0.160976 0 c 35 34 695 1973 bf 0.844634 0.136585 0 c 36 34
 730 1973 bf 0.796829 0.117073 0 c 35 34 766 1973 bf 0.760976 0.102439 0 c 36 34 801 1973 bf 0.725122 0.0878049 0 c 36 34 837 1973 bf 0.689268 0.0731707 0 c 35 34 873 1973 bf 0.665366 0.0634146 0 c 36 34 908 1973 bf 0.641463 0.0536585 0 c 35 34 944
 1973 bf 0.629512 0.0487805 0 c 36 34 979 1973 bf 0.60561 0.0390244 0 c 36 34 1015 1973 bf 0.593659 0.0341463 0 c 35 34 1051 1973 bf 0.581707 0.0292683 0 c 36 34 1086 1973 bf 0.569756 0.0243902 0 c 35 34 1122 1973 bf 36 34 1157 1973 bf 0.557805
 0.0195122 0 c 36 34 1193 1973 bf 0.545854 0.0146341 0 c 35 34 1229 1973 bf 36 34 1264 1973 bf 0.533902 0.0097561 0 c 35 34 1300 1973 bf 36 34 1335 1973 bf 36 34 1371 1973 bf 0.521951 0.00487805 0 c 35 34 1407 1973 bf 36 34 1442 1973 bf 35 34 1478
 1973 bf 36 34 1513 1973 bf 36 34 1549 1973 bf 35 34 1585 1973 bf 36 34 1620 1973 bf 35 34 1656 1973 bf 36 34 1691 1973 bf 36 34 1727 1973 bf 35 34 1763 1973 bf 36 34 1798 1973 bf 36 34 1834 1973 bf 35 34 1870 1973 bf 36 34 1905 1973 bf 35 34 1941
 1973 bf 36 34 1976 1973 bf 36 34 2012 1973 bf 35 34 2048 1973 bf 36 34 2083 1973 bf 0 0.254302 0.663837 c 36 34 374 2007 bf 0 0.725233 0.948721 c 35 34 410 2007 bf 0.416087 0.90087 0.57913 c 36 34 445 2007 bf 0.794348 0.983478 0.196522 c 36 34 481
 2007 bf 0.905254 0.783051 0.0874576 c 35 34 517 2007 bf 0.940508 0.566102 0.0549153 c 36 34 552 2007 bf 0.966949 0.40339 0.0305085 c 35 34 588 2007 bf 0.98678 0.281356 0.0122034 c 36 34 623 2007 bf 0.976098 0.190244 0 c 36 34 659 2007 bf 0.90439
 0.160976 0 c 35 34 695 2007 bf 0.844634 0.136585 0 c 36 34 730 2007 bf 0.796829 0.117073 0 c 35 34 766 2007 bf 0.760976 0.102439 0 c 36 34 801 2007 bf 0.725122 0.0878049 0 c 36 34 837 2007 bf 0.689268 0.0731707 0 c 35 34 873 2007 bf 0.665366
 0.0634146 0 c 36 34 908 2007 bf 0.641463 0.0536585 0 c 35 34 944 2007 bf 0.629512 0.0487805 0 c 36 34 979 2007 bf 0.60561 0.0390244 0 c 36 34 1015 2007 bf 0.593659 0.0341463 0 c 35 34 1051 2007 bf 0.581707 0.0292683 0 c 36 34 1086 2007 bf 0.569756
 0.0243902 0 c 35 34 1122 2007 bf 36 34 1157 2007 bf 0.557805 0.0195122 0 c 36 34 1193 2007 bf 0.545854 0.0146341 0 c 35 34 1229 2007 bf 36 34 1264 2007 bf 0.533902 0.0097561 0 c 35 34 1300 2007 bf 36 34 1335 2007 bf 36 34 1371 2007 bf 35 34 1407
 2007 bf 0.521951 0.00487805 0 c 36 34 1442 2007 bf 35 34 1478 2007 bf 36 34 1513 2007 bf 36 34 1549 2007 bf 35 34 1585 2007 bf 36 34 1620 2007 bf 35 34 1656 2007 bf 36 34 1691 2007 bf 36 34 1727 2007 bf 35 34 1763 2007 bf 36 34 1798 2007 bf 36 34
 1834 2007 bf 35 34 1870 2007 bf 36 34 1905 2007 bf 35 34 1941 2007 bf 36 34 1976 2007 bf 36 34 2012 2007 bf 35 34 2048 2007 bf 36 34 2083 2007 bf 0 0 0.51 c 102 7 2166 371 bf 0 0.0094186 0.515698 c 102 7 2166 378 bf 0 0.0188372 0.521395 c 102 6 2166
 385 bf 0 0.0282558 0.527093 c 102 7 2166 391 bf 0 0.0376744 0.532791 c 102 7 2166 398 bf 0 0.047093 0.538488 c 102 6 2166 405 bf 0 0.0565116 0.544186 c 102 7 2166 411 bf 0 0.0659302 0.549884 c 102 7 2166 418 bf 0 0.0753488 0.555581 c 102 6 2166 425
 bf 0 0.0847674 0.561279 c 102 7 2166 431 bf 0 0.094186 0.566977 c 102 7 2166 438 bf 0 0.103605 0.572674 c 102 6 2166 445 bf 0 0.113023 0.578372 c 102 7 2166 451 bf 0 0.122442 0.58407 c 102 7 2166 458 bf 0 0.13186 0.589767 c 102 6 2166 465 bf 0
 0.141279 0.595465 c 102 7 2166 471 bf 0 0.150698 0.601163 c 102 7 2166 478 bf 0 0.160116 0.60686 c 102 7 2166 485 bf 0 0.169535 0.612558 c 102 6 2166 492 bf 0 0.178953 0.618256 c 102 7 2166 498 bf 0 0.188372 0.623953 c 102 7 2166 505 bf 0 0.197791
 0.629651 c 102 6 2166 512 bf 0 0.207209 0.635349 c 102 7 2166 518 bf 0 0.216628 0.641047 c 102 7 2166 525 bf 0 0.226047 0.646744 c 102 6 2166 532 bf 0 0.235465 0.652442 c 102 7 2166 538 bf 0 0.244884 0.65814 c 102 7 2166 545 bf 0 0.254302 0.663837 c
 102 6 2166 552 bf 0 0.263721 0.669535 c 102 7 2166 558 bf 0 0.27314 0.675233 c 102 7 2166 565 bf 0 0.282558 0.68093 c 102 6 2166 572 bf 0 0.291977 0.686628 c 102 7 2166 578 bf 0 0.301395 0.692326 c 102 7 2166 585 bf 0 0.310814 0.698023 c 102 6 2166
 592 bf 0 0.320233 0.703721 c 102 7 2166 598 bf 0 0.329651 0.709419 c 102 7 2166 605 bf 0 0.33907 0.715116 c 102 6 2166 612 bf 0 0.348488 0.720814 c 102 7 2166 618 bf 0 0.357907 0.726512 c 102 7 2166 625 bf 0 0.367326 0.732209 c 102 7 2166 632 bf 0
 0.376744 0.737907 c 102 6 2166 639 bf 0 0.386163 0.743605 c 102 7 2166 645 bf 0 0.395581 0.749302 c 102 7 2166 652 bf 0 0.405 0.755 c 102 6 2166 659 bf 0 0.414419 0.760698 c 102 7 2166 665 bf 0 0.423837 0.766395 c 102 7 2166 672 bf 0 0.433256
 0.772093 c 102 6 2166 679 bf 0 0.442674 0.777791 c 102 7 2166 685 bf 0 0.452093 0.783488 c 102 7 2166 692 bf 0 0.461512 0.789186 c 102 6 2166 699 bf 0 0.47093 0.794884 c 102 7 2166 705 bf 0 0.480349 0.800581 c 102 7 2166 712 bf 0 0.489767 0.806279 c
 102 6 2166 719 bf 0 0.499186 0.811977 c 102 7 2166 725 bf 0 0.508605 0.817674 c 102 7 2166 732 bf 0 0.518023 0.823372 c 102 6 2166 739 bf 0 0.527442 0.82907 c 102 7 2166 745 bf 0 0.53686 0.834767 c 102 7 2166 752 bf 0 0.546279 0.840465 c 102 6 2166
 759 bf 0 0.555698 0.846163 c 102 7 2166 765 bf 0 0.565116 0.85186 c 102 7 2166 772 bf 0 0.574535 0.857558 c 102 6 2166 779 bf 0 0.583953 0.863256 c 102 7 2166 785 bf 0 0.593372 0.868953 c 102 7 2166 792 bf 0 0.602791 0.874651 c 102 7 2166 799 bf 0
 0.612209 0.880349 c 102 6 2166 806 bf 0 0.621628 0.886047 c 102 7 2166 812 bf 0 0.631047 0.891744 c 102 7 2166 819 bf 0 0.640465 0.897442 c 102 6 2166 826 bf 0 0.649884 0.90314 c 102 7 2166 832 bf 0 0.659302 0.908837 c 102 7 2166 839 bf 0 0.668721
 0.914535 c 102 6 2166 846 bf 0 0.67814 0.920233 c 102 7 2166 852 bf 0 0.687558 0.92593 c 102 7 2166 859 bf 0 0.696977 0.931628 c 102 6 2166 866 bf 0 0.706395 0.937326 c 102 7 2166 872 bf 0 0.715814 0.943023 c 102 7 2166 879 bf 0 0.725233 0.948721 c
 102 6 2166 886 bf 0 0.734651 0.954419 c 102 7 2166 892 bf 0 0.74407 0.960116 c 102 7 2166 899 bf 0 0.753488 0.965814 c 102 6 2166 906 bf 0 0.762907 0.971512 c 102 7 2166 912 bf 0 0.772326 0.977209 c 102 7 2166 919 bf 0 0.781744 0.982907 c 102 6 2166
 926 bf 0 0.791163 0.988605 c 102 7 2166 932 bf 0 0.800581 0.994302 c 102 7 2166 939 bf 0 0.81 1 c 102 6 2166 946 bf 0.0126087 0.812754 0.987246 c 102 7 2166 952 bf 0.0252174 0.815507 0.974493 c 102 7 2166 959 bf 0.0378261 0.818261 0.961739 c 102 7
 2166 966 bf 0.0504348 0.821014 0.948986 c 102 6 2166 973 bf 0.0630435 0.823768 0.936232 c 102 7 2166 979 bf 0.0756522 0.826522 0.923478 c 102 7 2166 986 bf 0.0882609 0.829275 0.910725 c 102 6 2166 993 bf 0.10087 0.832029 0.897971 c 102 7 2166 999 bf
 0.113478 0.834783 0.885217 c 102 7 2166 1006 bf 0.126087 0.837536 0.872464 c 102 6 2166 1013 bf 0.138696 0.84029 0.85971 c 102 7 2166 1019 bf 0.151304 0.843044 0.846957 c 102 7 2166 1026 bf 0.163913 0.845797 0.834203 c 102 6 2166 1033 bf 0.176522
 0.848551 0.821449 c 102 7 2166 1039 bf 0.18913 0.851304 0.808696 c 102 7 2166 1046 bf 0.201739 0.854058 0.795942 c 102 6 2166 1053 bf 0.214348 0.856812 0.783188 c 102 7 2166 1059 bf 0.226957 0.859565 0.770435 c 102 7 2166 1066 bf 0.239565 0.862319
 0.757681 c 102 6 2166 1073 bf 0.252174 0.865072 0.744928 c 102 7 2166 1079 bf 0.264783 0.867826 0.732174 c 102 7 2166 1086 bf 0.277391 0.87058 0.71942 c 102 6 2166 1093 bf 0.29 0.873333 0.706667 c 102 7 2166 1099 bf 0.302609 0.876087 0.693913 c 102
 7 2166 1106 bf 0.315217 0.878841 0.681159 c 102 6 2166 1113 bf 0.327826 0.881594 0.668406 c 102 7 2166 1119 bf 0.340435 0.884348 0.655652 c 102 7 2166 1126 bf 0.353043 0.887101 0.642899 c 102 7 2166 1133 bf 0.365652 0.889855 0.630145 c 102 6 2166
 1140 bf 0.378261 0.892609 0.617391 c 102 7 2166 1146 bf 0.39087 0.895362 0.604638 c 102 7 2166 1153 bf 0.403478 0.898116 0.591884 c 102 6 2166 1160 bf 0.416087 0.90087 0.57913 c 102 7 2166 1166 bf 0.428696 0.903623 0.566377 c 102 7 2166 1173 bf
 0.441304 0.906377 0.553623 c 102 6 2166 1180 bf 0.453913 0.90913 0.54087 c 102 7 2166 1186 bf 0.466522 0.911884 0.528116 c 102 7 2166 1193 bf 0.47913 0.914638 0.515362 c 102 6 2166 1200 bf 0.491739 0.917391 0.502609 c 102 7 2166 1206 bf 0.504348
 0.920145 0.489855 c 102 7 2166 1213 bf 0.516957 0.922899 0.477101 c 102 6 2166 1220 bf 0.529565 0.925652 0.464348 c 102 7 2166 1226 bf 0.542174 0.928406 0.451594 c 102 7 2166 1233 bf 0.554783 0.931159 0.438841 c 102 6 2166 1240 bf 0.567391 0.933913
 0.426087 c 102 7 2166 1246 bf 0.58 0.936667 0.413333 c 102 7 2166 1253 bf 0.592609 0.93942 0.40058 c 102 6 2166 1260 bf 0.605217 0.942174 0.387826 c 102 7 2166 1266 bf 0.617826 0.944928 0.375072 c 102 7 2166 1273 bf 0.630435 0.947681 0.362319 c 102
 7 2166 1280 bf 0.643043 0.950435 0.349565 c 102 6 2166 1287 bf 0.655652 0.953188 0.336812 c 102 7 2166 1293 bf 0.668261 0.955942 0.324058 c 102 7 2166 1300 bf 0.68087 0.958696 0.311304 c 102 6 2166 1307 bf 0.693478 0.961449 0.298551 c 102 7 2166
 1313 bf 0.706087 0.964203 0.285797 c 102 7 2166 1320 bf 0.718696 0.966956 0.273043 c 102 6 2166 1327 bf 0.731304 0.96971 0.26029 c 102 7 2166 1333 bf 0.743913 0.972464 0.247536 c 102 7 2166 1340 bf 0.756522 0.975217 0.234783 c 102 6 2166 1347 bf
 0.76913 0.977971 0.222029 c 102 7 2166 1353 bf 0.781739 0.980725 0.209275 c 102 7 2166 1360 bf 0.794348 0.983478 0.196522 c 102 6 2166 1367 bf 0.806957 0.986232 0.183768 c 102 7 2166 1373 bf 0.819565 0.988985 0.171014 c 102 7 2166 1380 bf 0.832174
 0.991739 0.158261 c 102 6 2166 1387 bf 0.844783 0.994493 0.145507 c 102 7 2166 1393 bf 0.857391 0.997246 0.132754 c 102 7 2166 1400 bf 0.87 1 0.12 c 102 6 2166 1407 bf 0.872203 0.986441 0.117966 c 102 7 2166 1413 bf 0.874407 0.972881 0.115932 c 102
 7 2166 1420 bf 0.87661 0.959322 0.113898 c 102 6 2166 1427 bf 0.878814 0.945763 0.111864 c 102 7 2166 1433 bf 0.881017 0.932203 0.109831 c 102 7 2166 1440 bf 0.88322 0.918644 0.107797 c 102 7 2166 1447 bf 0.885424 0.905085 0.105763 c 102 6 2166 1454
 bf 0.887627 0.891525 0.103729 c 102 7 2166 1460 bf 0.889831 0.877966 0.101695 c 102 7 2166 1467 bf 0.892034 0.864407 0.099661 c 102 6 2166 1474 bf 0.894237 0.850847 0.0976271 c 102 7 2166 1480 bf 0.896441 0.837288 0.0955932 c 102 7 2166 1487 bf
 0.898644 0.823729 0.0935593 c 102 6 2166 1494 bf 0.900847 0.81017 0.0915254 c 102 7 2166 1500 bf 0.903051 0.79661 0.0894915 c 102 7 2166 1507 bf 0.905254 0.783051 0.0874576 c 102 6 2166 1514 bf 0.907458 0.769492 0.0854237 c 102 7 2166 1520 bf
 0.909661 0.755932 0.0833898 c 102 7 2166 1527 bf 0.911864 0.742373 0.0813559 c 102 6 2166 1534 bf 0.914068 0.728814 0.079322 c 102 7 2166 1540 bf 0.916271 0.715254 0.0772881 c 102 7 2166 1547 bf 0.918475 0.701695 0.0752542 c 102 6 2166 1554 bf
 0.920678 0.688136 0.0732203 c 102 7 2166 1560 bf 0.922881 0.674576 0.0711864 c 102 7 2166 1567 bf 0.925085 0.661017 0.0691525 c 102 6 2166 1574 bf 0.927288 0.647458 0.0671186 c 102 7 2166 1580 bf 0.929492 0.633898 0.0650847 c 102 7 2166 1587 bf
 0.931695 0.620339 0.0630508 c 102 6 2166 1594 bf 0.933898 0.60678 0.061017 c 102 7 2166 1600 bf 0.936102 0.59322 0.0589831 c 102 7 2166 1607 bf 0.938305 0.579661 0.0569492 c 102 7 2166 1614 bf 0.940508 0.566102 0.0549153 c 102 6 2166 1621 bf
 0.942712 0.552542 0.0528814 c 102 7 2166 1627 bf 0.944915 0.538983 0.0508475 c 102 7 2166 1634 bf 0.947119 0.525424 0.0488136 c 102 6 2166 1641 bf 0.949322 0.511864 0.0467797 c 102 7 2166 1647 bf 0.951525 0.498305 0.0447458 c 102 7 2166 1654 bf
 0.953729 0.484746 0.0427119 c 102 6 2166 1661 bf 0.955932 0.471186 0.040678 c 102 7 2166 1667 bf 0.958136 0.457627 0.0386441 c 102 7 2166 1674 bf 0.960339 0.444068 0.0366102 c 102 6 2166 1681 bf 0.962542 0.430508 0.0345763 c 102 7 2166 1687 bf
 0.964746 0.416949 0.0325424 c 102 7 2166 1694 bf 0.966949 0.40339 0.0305085 c 102 6 2166 1701 bf 0.969153 0.38983 0.0284746 c 102 7 2166 1707 bf 0.971356 0.376271 0.0264407 c 102 7 2166 1714 bf 0.973559 0.362712 0.0244068 c 102 6 2166 1721 bf
 0.975763 0.349153 0.0223729 c 102 7 2166 1727 bf 0.977966 0.335593 0.020339 c 102 7 2166 1734 bf 0.980169 0.322034 0.0183051 c 102 6 2166 1741 bf 0.982373 0.308475 0.0162712 c 102 7 2166 1747 bf 0.984576 0.294915 0.0142373 c 102 7 2166 1754 bf
 0.98678 0.281356 0.0122034 c 102 7 2166 1761 bf 0.988983 0.267797 0.0101695 c 102 6 2166 1768 bf 0.991186 0.254237 0.00813559 c 102 7 2166 1774 bf 0.99339 0.240678 0.00610169 c 102 7 2166 1781 bf 0.995593 0.227119 0.0040678 c 102 6 2166 1788 bf
 0.997797 0.213559 0.0020339 c 102 7 2166 1794 bf 1 0.2 0 c 102 7 2166 1801 bf 0.988049 0.195122 0 c 102 6 2166 1808 bf 0.976098 0.190244 0 c 102 7 2166 1814 bf 0.964146 0.185366 0 c 102 7 2166 1821 bf 0.952195 0.180488 0 c 102 6 2166 1828 bf
 0.940244 0.17561 0 c 102 7 2166 1834 bf 0.928293 0.170732 0 c 102 7 2166 1841 bf 0.916341 0.165854 0 c 102 6 2166 1848 bf 0.90439 0.160976 0 c 102 7 2166 1854 bf 0.892439 0.156098 0 c 102 7 2166 1861 bf 0.880488 0.15122 0 c 102 6 2166 1868 bf
 0.868537 0.146341 0 c 102 7 2166 1874 bf 0.856585 0.141463 0 c 102 7 2166 1881 bf 0.844634 0.136585 0 c 102 6 2166 1888 bf 0.832683 0.131707 0 c 102 7 2166 1894 bf 0.820732 0.126829 0 c 102 7 2166 1901 bf 0.80878 0.121951 0 c 102 6 2166 1908 bf
 0.796829 0.117073 0 c 102 7 2166 1914 bf 0.784878 0.112195 0 c 102 7 2166 1921 bf 0.772927 0.107317 0 c 102 7 2166 1928 bf 0.760976 0.102439 0 c 102 6 2166 1935 bf 0.749024 0.097561 0 c 102 7 2166 1941 bf 0.737073 0.0926829 0 c 102 7 2166 1948 bf
 0.725122 0.0878049 0 c 102 6 2166 1955 bf 0.713171 0.0829268 0 c 102 7 2166 1961 bf 0.701219 0.0780488 0 c 102 7 2166 1968 bf 0.689268 0.0731707 0 c 102 6 2166 1975 bf 0.677317 0.0682927 0 c 102 7 2166 1981 bf 0.665366 0.0634146 0 c 102 7 2166 1988
 bf 0.653415 0.0585366 0 c 102 6 2166 1995 bf 0.641463 0.0536585 0 c 102 7 2166 2001 bf 0.629512 0.0487805 0 c 102 7 2166 2008 bf 0.617561 0.0439024 0 c 102 6 2166 2015 bf 0.60561 0.0390244 0 c 102 7 2166 2021 bf 0.593659 0.0341463 0 c 102 7 2166
 2028 bf 0.581707 0.0292683 0 c 102 6 2166 2035 bf 0.569756 0.0243902 0 c 102 7 2166 2041 bf 0.557805 0.0195122 0 c 102 7 2166 2048 bf 0.545854 0.0146341 0 c 102 6 2166 2055 bf 0.533902 0.0097561 0 c 102 7 2166 2061 bf 0.521951 0.00487805 0 c 102 7
 2166 2068 bf black 2268 371 m 1704 Y s 2215 371 m 53 X s 2215 683 m 53 X s 2215 995 m 53 X s 2215 1307 m 53 X s 2215 1618 m 53 X s 2215 1930 m 53 X s 2215 1930 m 53 X s
 gsave  2268 2184 0 0 C 2275.33 334.831 t 0 r /Times-Roman findfont 102.732 sf 0 0 m (0) show NC gr 
 gsave  2268 2184 0 0 C 2275.33 646.832 t 0 r /Times-Roman findfont 102.732 sf 0 0 m (100) show NC gr 
 gsave  2268 2184 0 0 C 2275.33 958.833 t 0 r /Times-Roman findfont 102.732 sf 0 0 m (200) show NC gr 
 gsave  2268 2184 0 0 C 2275.33 1270.83 t 0 r /Times-Roman findfont 102.732 sf 0 0 m (300) show NC gr 
 gsave  2268 2184 0 0 C 2275.33 1582.84 t 0 r /Times-Roman findfont 102.732 sf 0 0 m (400) show NC gr 
 gsave  2268 2184 0 0 C 2275.33 1894.84 t 0 r /Times-Roman findfont 102.732 sf 0 0 m (500) show NC gr 
 gsave  2268 2184 0 0 C 2427.52 2138.35 t 0 r /Times-Roman findfont 68.4881 sf 0 0 m (3) show NC gr 
 gsave  2268 2184 0 0 C 2324.79 2088.89 t 0 r /Times-Roman findfont 102.732 sf 0 0 m (10) show NC gr 
 gsave  2268 2184 0 0 C 2267.72 2088.89 t 0 r /Symbol findfont 102.732 sf 0 0 m () show NC gr  1 1 1 c black 374 371 m 1780 X s
 gsave  2268 2184 0 0 C 1780.69 22.8294 t 0 r /Times-Roman findfont 121.757 sf 0 0 m (R [mm]) show NC gr 
 gsave  2268 2184 0 0 C 1704.59 22.8294 t 0 r /Symbol findfont 121.757 sf 0 0 m (D) show NC gr  374 423 m -52 Y s 410 397 m -26 Y s 445 397 m -26 Y s 481 397 m -26 Y s 517 397 m -26 Y s 552 423 m -52 Y s 588 397 m -26 Y s 623 397 m -26 Y s 659 397 m
 -26 Y s 695 397 m -26 Y s 730 423 m -52 Y s 766 397 m -26 Y s 801 397 m -26 Y s 837 397 m -26 Y s 873 397 m -26 Y s 908 423 m -52 Y s 944 397 m -26 Y s 979 397 m -26 Y s 1015 397 m -26 Y s 1051 397 m -26 Y s 1086 423 m -52 Y s 1122 397 m -26 Y s
 1157 397 m -26 Y s 1193 397 m -26 Y s 1229 397 m -26 Y s 1264 423 m -52 Y s 1300 397 m -26 Y s 1335 397 m -26 Y s 1371 397 m -26 Y s 1407 397 m -26 Y s 1442 423 m -52 Y s 1478 397 m -26 Y s 1513 397 m -26 Y s 1549 397 m -26 Y s 1585 397 m -26 Y s
 1620 423 m -52 Y s 1656 397 m -26 Y s 1691 397 m -26 Y s 1727 397 m -26 Y s 1763 397 m -26 Y s 1798 423 m -52 Y s 1834 397 m -26 Y s 1870 397 m -26 Y s 1905 397 m -26 Y s 1941 397 m -26 Y s 1976 423 m -52 Y s 2012 397 m -26 Y s 2048 397 m -26 Y s
 2083 397 m -26 Y s 2119 397 m -26 Y s 2154 423 m -52 Y s
 gsave  2268 2184 0 0 C 346.245 243.513 t 0 r /Times-Roman findfont 102.732 sf 0 0 m (0) show NC gr 
 gsave  2268 2184 0 0 C 498.441 243.513 t 0 r /Times-Roman findfont 102.732 sf 0 0 m (10) show NC gr 
 gsave  2268 2184 0 0 C 673.466 243.513 t 0 r /Times-Roman findfont 102.732 sf 0 0 m (20) show NC gr 
 gsave  2268 2184 0 0 C 852.296 243.513 t 0 r /Times-Roman findfont 102.732 sf 0 0 m (30) show NC gr 
 gsave  2268 2184 0 0 C 1031.13 243.513 t 0 r /Times-Roman findfont 102.732 sf 0 0 m (40) show NC gr 
 gsave  2268 2184 0 0 C 1209.96 243.513 t 0 r /Times-Roman findfont 102.732 sf 0 0 m (50) show NC gr 
 gsave  2268 2184 0 0 C 1388.79 243.513 t 0 r /Times-Roman findfont 102.732 sf 0 0 m (60) show NC gr 
 gsave  2268 2184 0 0 C 1563.81 243.513 t 0 r /Times-Roman findfont 102.732 sf 0 0 m (70) show NC gr 
 gsave  2268 2184 0 0 C 1742.64 243.513 t 0 r /Times-Roman findfont 102.732 sf 0 0 m (80) show NC gr 
 gsave  2268 2184 0 0 C 1921.47 243.513 t 0 r /Times-Roman findfont 102.732 sf 0 0 m (90) show NC gr 
 gsave  2268 2184 0 0 C 2077.47 243.513 t 0 r /Times-Roman findfont 102.732 sf 0 0 m (100) show NC gr  374 2075 m 1780 X s 374 2023 m 52 Y s 410 2049 m 26 Y s 445 2049 m 26 Y s 481 2049 m 26 Y s 517 2049 m 26 Y s 552 2023 m 52 Y s 588 2049 m 26 Y s
 623 2049 m 26 Y s 659 2049 m 26 Y s 695 2049 m 26 Y s 730 2023 m 52 Y s 766 2049 m 26 Y s 801 2049 m 26 Y s 837 2049 m 26 Y s 873 2049 m 26 Y s 908 2023 m 52 Y s 944 2049 m 26 Y s 979 2049 m 26 Y s 1015 2049 m 26 Y s 1051 2049 m 26 Y s 1086 2023 m
 52 Y s 1122 2049 m 26 Y s 1157 2049 m 26 Y s 1193 2049 m 26 Y s 1229 2049 m 26 Y s 1264 2023 m 52 Y s 1300 2049 m 26 Y s 1335 2049 m 26 Y s 1371 2049 m 26 Y s 1407 2049 m 26 Y s 1442 2023 m 52 Y s 1478 2049 m 26 Y s 1513 2049 m 26 Y s 1549 2049 m 26
 Y s 1585 2049 m 26 Y s 1620 2023 m 52 Y s 1656 2049 m 26 Y s 1691 2049 m 26 Y s 1727 2049 m 26 Y s 1763 2049 m 26 Y s 1798 2023 m 52 Y s 1834 2049 m 26 Y s 1870 2049 m 26 Y s 1905 2049 m 26 Y s 1941 2049 m 26 Y s 1976 2023 m 52 Y s 2012 2049 m 26 Y
 s 2048 2049 m 26 Y s 2083 2049 m 26 Y s 2119 2049 m 26 Y s 2154 2023 m 52 Y s 374 371 m 1704 Y s
 gsave  2268 2184 0 0 C 91.3174 2016.59 t 90 r /Symbol findfont 121.757 sf 0 0 m (q) show NC gr 
 gsave  2268 2184 0 0 C 91.3174 1940.5 t 90 r /Symbol findfont 121.757 sf 0 0 m (D) show NC gr 
 gsave  2268 2184 0 0 C 87.5126 1795.91 t 90 r /Times-Roman findfont 121.757 sf 0 0 m (sin) show NC gr  427 371 m -53 X s 401 405 m -27 X s 401 439 m -27 X s 401 473 m -27 X s 401 508 m -27 X s 427 542 m -53 X s 401 576 m -27 X s 401 610 m -27 X s
 401 644 m -27 X s 401 678 m -27 X s 427 712 m -53 X s 401 746 m -27 X s 401 780 m -27 X s 401 814 m -27 X s 401 848 m -27 X s 427 882 m -53 X s 401 916 m -27 X s 401 950 m -27 X s 401 985 m -27 X s 401 1019 m -27 X s 427 1053 m -53 X s 401 1087 m
 -27 X s 401 1121 m -27 X s 401 1155 m -27 X s 401 1189 m -27 X s 427 1223 m -53 X s 401 1257 m -27 X s 401 1291 m -27 X s 401 1325 m -27 X s 401 1359 m -27 X s 427 1393 m -53 X s 401 1427 m -27 X s 401 1462 m -27 X s 401 1496 m -27 X s 401 1530 m
 -27 X s 427 1564 m -53 X s 401 1598 m -27 X s 401 1632 m -27 X s 401 1666 m -27 X s 401 1700 m -27 X s 427 1734 m -53 X s 401 1768 m -27 X s 401 1802 m -27 X s 401 1836 m -27 X s 401 1870 m -27 X s 427 1904 m -53 X s 401 1939 m -27 X s 401 1973 m
 -27 X s 401 2007 m -27 X s 401 2041 m -27 X s 427 2075 m -53 X s
 gsave  2268 2184 0 0 C 232.099 334.831 t 0 r /Times-Roman findfont 102.732 sf 0 0 m (0) show NC gr 
 gsave  2268 2184 0 0 C 163.61 506.051 t 0 r /Times-Roman findfont 102.732 sf 0 0 m (0.1) show NC gr 
 gsave  2268 2184 0 0 C 156.001 677.271 t 0 r /Times-Roman findfont 102.732 sf 0 0 m (0.2) show NC gr 
 gsave  2268 2184 0 0 C 159.806 844.686 t 0 r /Times-Roman findfont 102.732 sf 0 0 m (0.3) show NC gr 
 gsave  2268 2184 0 0 C 156.001 1015.91 t 0 r /Times-Roman findfont 102.732 sf 0 0 m (0.4) show NC gr 
 gsave  2268 2184 0 0 C 159.806 1187.13 t 0 r /Times-Roman findfont 102.732 sf 0 0 m (0.5) show NC gr 
 gsave  2268 2184 0 0 C 156.001 1358.35 t 0 r /Times-Roman findfont 102.732 sf 0 0 m (0.6) show NC gr 
 gsave  2268 2184 0 0 C 156.001 1525.76 t 0 r /Times-Roman findfont 102.732 sf 0 0 m (0.7) show NC gr 
 gsave  2268 2184 0 0 C 156.001 1696.98 t 0 r /Times-Roman findfont 102.732 sf 0 0 m (0.8) show NC gr 
 gsave  2268 2184 0 0 C 156.001 1868.2 t 0 r /Times-Roman findfont 102.732 sf 0 0 m (0.9) show NC gr 
 gsave  2268 2184 0 0 C 239.708 2039.42 t 0 r /Times-Roman findfont 102.732 sf 0 0 m (1) show NC gr  2154 371 m 1704 Y s 2101 371 m 53 X s 2128 405 m 26 X s 2128 439 m 26 X s 2128 473 m 26 X s 2128 508 m 26 X s 2101 542 m 53 X s 2128 576 m 26 X s
 2128 610 m 26 X s 2128 644 m 26 X s 2128 678 m 26 X s 2101 712 m 53 X s 2128 746 m 26 X s 2128 780 m 26 X s 2128 814 m 26 X s 2128 848 m 26 X s 2101 882 m 53 X s 2128 916 m 26 X s 2128 950 m 26 X s 2128 985 m 26 X s 2128 1019 m 26 X s 2101 1053 m 53
 X s 2128 1087 m 26 X s 2128 1121 m 26 X s 2128 1155 m 26 X s 2128 1189 m 26 X s 2101 1223 m 53 X s 2128 1257 m 26 X s 2128 1291 m 26 X s 2128 1325 m 26 X s 2128 1359 m 26 X s 2101 1393 m 53 X s 2128 1427 m 26 X s 2128 1462 m 26 X s 2128 1496 m 26 X
 s 2128 1530 m 26 X s 2101 1564 m 53 X s 2128 1598 m 26 X s 2128 1632 m 26 X s 2128 1666 m 26 X s 2128 1700 m 26 X s 2101 1734 m 53 X s 2128 1768 m 26 X s 2128 1802 m 26 X s 2128 1836 m 26 X s 2128 1870 m 26 X s 2101 1904 m 53 X s 2128 1939 m 26 X s
 2128 1973 m 26 X s 2128 2007 m 26 X s 2128 2041 m 26 X s 2101 2075 m 53 X s
 gr  gr showpage
end
%%EOF
